(i__main__
LossModule
p0
(dp1
S'Many_G_loss'
p2
(lp3
(lp4
ag4
ag4
ag4
ag4
ag4
ag4
ag4
ag4
asS'D_loss'
p5
(lp6
F0.2634633183479309
aF0.10662801563739777
aF0.25529879331588745
aF0.8143259286880493
aF0.7796230912208557
aF0.9700421094894409
aF0.6595262289047241
aF0.45496851205825806
aF0.4061567187309265
aF0.597313642501831
aF0.2505001723766327
aF0.2118133306503296
aF0.12884899973869324
aF0.2056088149547577
aF0.23805859684944153
aF0.33846315741539
aF0.45049071311950684
aF0.09460868686437607
aF0.33307379484176636
aF0.4002259373664856
aF0.2782418131828308
aF0.4164966642856598
aF0.39923787117004395
aF0.412727415561676
aF0.4569206237792969
aF0.26183217763900757
aF0.24518412351608276
aF0.3922334909439087
aF0.48499011993408203
aF0.38764360547065735
aF0.4100795090198517
aF0.22759610414505005
aF0.47283315658569336
aF0.2907247543334961
aF0.2434411644935608
aF0.4312545657157898
aF0.4616650938987732
aF0.4464670419692993
aF0.39016395807266235
aF0.5108646154403687
aF0.4476523995399475
aF0.5409541130065918
aF0.4347982406616211
aF0.6121466755867004
aF0.4838294982910156
aF0.45827847719192505
aF0.5291447043418884
aF0.43857520818710327
aF0.4662846326828003
aF0.46346917748451233
aF0.5206904411315918
aF0.5342153310775757
aF0.42946094274520874
aF0.4135652780532837
aF0.4570968449115753
aF0.47319668531417847
aF0.4782898426055908
aF0.5531693696975708
aF0.7188143134117126
aF0.45417895913124084
aF0.49796128273010254
aF0.5376527905464172
aF0.5435822606086731
aF0.4475414454936981
aF0.5275564193725586
aF0.6445763111114502
aF0.5173156261444092
aF0.4171621799468994
aF0.5051661133766174
aF0.5750928521156311
aF0.5368950366973877
aF0.6922334432601929
aF0.5986341834068298
aF0.9112854599952698
aF0.6217322945594788
aF0.5908499360084534
aF0.4711311459541321
aF0.5148334503173828
aF0.577143669128418
aF0.6045096516609192
aF0.6008042097091675
aF0.7974694967269897
aF0.6848706007003784
aF0.7160629034042358
aF0.6778663992881775
aF0.8231490254402161
aF0.6733662486076355
aF0.7572880387306213
aF0.6040667295455933
aF0.6953117847442627
aF0.7111029028892517
aF0.5907881259918213
aF0.7276161909103394
aF0.7266881465911865
aF0.5966020822525024
aF0.9536288380622864
aF0.7325325012207031
aF0.8837864398956299
aF0.6404653787612915
aF0.8750882148742676
aF0.7196415662765503
aF0.7310815453529358
aF0.7064844369888306
aF0.5798584222793579
aF0.6754621267318726
aF0.7642792463302612
aF0.8024164438247681
aF0.7819488048553467
aF0.7259315848350525
aF0.763806939125061
aF0.7507557272911072
aF0.8910552263259888
aF0.9331428408622742
aF0.7201672792434692
aF0.8823196291923523
aF0.7618643045425415
aF0.7802601456642151
aF0.7925150990486145
aF0.8404299020767212
aF0.7603977918624878
aF0.8539875149726868
aF0.6724979281425476
aF0.7146354913711548
aF0.6949112415313721
aF0.7780478000640869
aF0.7937040328979492
aF0.854019284248352
aF0.9685012698173523
aF0.6213200092315674
aF0.627163827419281
aF0.8368821144104004
aF0.7311490774154663
aF0.8140353560447693
aF1.081087350845337
aF0.9554941058158875
aF0.8655096888542175
aF0.7497208118438721
aF0.6680898666381836
aF0.6712234020233154
aF0.8619246482849121
aF0.8409730195999146
aF0.6366697549819946
aF0.8115473985671997
aF0.7456037998199463
aF0.8010002374649048
aF0.8837137222290039
aF0.7205314636230469
aF0.7611548900604248
aF0.6093679666519165
aF0.8335403203964233
aF0.8058197498321533
aF0.6819167733192444
aF0.7305614948272705
aF0.8147030472755432
aF0.7076599597930908
aF0.7638058662414551
aF0.7836082577705383
aF0.8232057094573975
aF0.8406225442886353
aF0.8971037864685059
aF0.7794323563575745
aF0.7129817605018616
aF0.768907368183136
aF0.7598848342895508
aF0.752453088760376
aF0.7041003704071045
aF0.8064099550247192
aF0.6398086547851562
aF0.6410967111587524
aF0.8509576320648193
aF0.8257355690002441
aF0.7463275194168091
aF0.6418672800064087
aF0.6804543733596802
aF0.7124940752983093
aF1.0574802160263062
aF0.7479180097579956
aF0.617060661315918
aF0.8666857481002808
aF0.8025434613227844
aF0.8164253234863281
aF0.6802842617034912
aF0.7990540266036987
aF0.7219199538230896
aF0.8046439290046692
aF0.7702150344848633
aF0.8965902328491211
aF0.6963286399841309
aF0.8444478511810303
aF0.8045825958251953
aF0.7826024293899536
aF0.7430741786956787
aF0.801246166229248
aF0.8226855993270874
aF0.7789355516433716
aF0.7696533203125
aF0.7093909978866577
aF0.7096918225288391
aF0.859851598739624
aF0.799075186252594
asS'G_loss'
p7
(lp8
F5.249310493469238
aF3.8029205799102783
aF3.448373317718506
aF1.9407284259796143
aF1.5315139293670654
aF1.8715338706970215
aF1.6110745668411255
aF2.684976577758789
aF0.46914994716644287
aF1.3010318279266357
aF2.4676504135131836
aF0.5842171311378479
aF0.5148048400878906
aF0.2620660662651062
aF0.9994344115257263
aF0.21035076677799225
aF1.3823504447937012
aF2.473496198654175
aF1.678783893585205
aF1.326297640800476
aF0.5046906471252441
aF2.3822782039642334
aF0.4215472340583801
aF2.3154189586639404
aF2.3959131240844727
aF1.504514217376709
aF2.5370888710021973
aF1.5042632818222046
aF0.879835844039917
aF1.6922857761383057
aF0.6023355722427368
aF0.8915678262710571
aF0.6996707320213318
aF0.5951697826385498
aF0.5372419953346252
aF0.5317424535751343
aF0.738781213760376
aF0.618479311466217
aF2.0701851844787598
aF1.6378264427185059
aF0.6719003319740295
aF0.5660902261734009
aF2.425217628479004
aF0.283748060464859
aF1.26190185546875
aF0.6015723943710327
aF0.8639793992042542
aF1.0401612520217896
aF2.048196315765381
aF0.403023898601532
aF1.0003070831298828
aF0.5283606052398682
aF1.0284056663513184
aF1.163156509399414
aF0.8740318417549133
aF0.391393780708313
aF1.3850855827331543
aF1.1969184875488281
aF1.0332564115524292
aF1.3659217357635498
aF1.9085544347763062
aF0.8663548231124878
aF1.211287021636963
aF0.5217742323875427
aF0.3823014497756958
aF0.23815670609474182
aF2.4342381954193115
aF1.1893795728683472
aF0.49290013313293457
aF2.8721203804016113
aF0.7029470205307007
aF1.3445024490356445
aF1.0767115354537964
aF0.576799213886261
aF0.8555166721343994
aF0.7307325005531311
aF0.8591777682304382
aF0.43553146719932556
aF1.283949851989746
aF1.560781717300415
aF1.275335669517517
aF1.1720741987228394
aF0.8140125870704651
aF1.2878968715667725
aF1.222083568572998
aF2.0829219818115234
aF0.9244869947433472
aF1.2960679531097412
aF1.7831294536590576
aF1.6420763731002808
aF0.7398532629013062
aF1.7346001863479614
aF1.502959132194519
aF1.3119773864746094
aF1.3196467161178589
aF1.5610711574554443
aF1.1302733421325684
aF0.874305248260498
aF1.9469480514526367
aF1.468338966369629
aF1.0092871189117432
aF1.9770699739456177
aF1.4272466897964478
aF1.5708260536193848
aF1.5369524955749512
aF2.3208694458007812
aF1.4531238079071045
aF1.7837334871292114
aF1.5139275789260864
aF1.3763000965118408
aF1.6545883417129517
aF1.1348146200180054
aF1.5268634557724
aF1.4961268901824951
aF0.9447271227836609
aF1.6595392227172852
aF1.7896087169647217
aF1.0943994522094727
aF1.3148770332336426
aF1.6792426109313965
aF1.5750008821487427
aF1.4221854209899902
aF1.3390185832977295
aF1.954628586769104
aF1.3078835010528564
aF1.595941185951233
aF1.5888431072235107
aF1.751573920249939
aF1.522891879081726
aF1.8180105686187744
aF1.573195219039917
aF1.551430344581604
aF1.2199651002883911
aF1.8485146760940552
aF1.336085557937622
aF1.4358100891113281
aF1.8672540187835693
aF1.5320624113082886
aF1.915493369102478
aF1.7390704154968262
aF1.9692769050598145
aF1.6317176818847656
aF1.7595131397247314
aF1.333475947380066
aF1.4923702478408813
aF1.4097143411636353
aF1.6702680587768555
aF1.4265934228897095
aF1.9959402084350586
aF1.1795036792755127
aF1.6806498765945435
aF1.3856985569000244
aF1.521048903465271
aF1.3471806049346924
aF1.6015517711639404
aF1.74651300907135
aF1.7819966077804565
aF1.5893051624298096
aF1.7093826532363892
aF1.540189504623413
aF1.3740746974945068
aF1.4316080808639526
aF1.628769040107727
aF1.6436611413955688
aF1.7365875244140625
aF1.7795097827911377
aF1.0972018241882324
aF1.565434217453003
aF1.9043811559677124
aF2.0200555324554443
aF1.518998146057129
aF1.4834405183792114
aF1.8030282258987427
aF1.3956363201141357
aF1.633866310119629
aF1.8884246349334717
aF1.6346877813339233
aF1.5162711143493652
aF2.598426580429077
aF2.102989435195923
aF1.8400651216506958
aF1.9334317445755005
aF2.120745897293091
aF1.6889660358428955
aF1.6446402072906494
aF1.992150902748108
aF1.4038543701171875
aF1.5756912231445312
aF1.7149041891098022
aF1.5301285982131958
aF1.7529411315917969
aF2.0831823348999023
aF1.4628170728683472
aF1.5937776565551758
aF2.5967459678649902
aF1.7561066150665283
aF1.754522442817688
aF1.34598970413208
aF1.9808632135391235
aF1.8370895385742188
asb.