(i__main__
LossModule
p0
(dp1
S'Many_G_loss'
p2
(lp3
(lp4
ag4
ag4
ag4
asS'D_loss'
p5
(lp6
F0.01656382344663143
aF0.059145815670490265
aF0.04146931692957878
aF0.07054322957992554
aF0.32923614978790283
aF0.15366029739379883
aF0.05483802780508995
aF0.2058461457490921
aF0.07554084062576294
aF0.12990520894527435
aF0.0867675244808197
aF0.05394253134727478
aF0.10301177203655243
aF0.13911254703998566
aF0.15183883905410767
aF0.10543988645076752
aF0.24271227419376373
aF0.09994961321353912
aF0.10759257525205612
aF0.11256345361471176
aF0.28358352184295654
aF0.194925457239151
aF0.20298567414283752
aF0.3051537573337555
aF0.10983303189277649
aF0.20981329679489136
aF0.12117992341518402
aF0.09756430983543396
aF0.14830633997917175
aF0.1573001593351364
aF0.19504329562187195
aF0.17570993304252625
aF0.27766305208206177
aF0.24547989666461945
aF0.32575327157974243
aF0.6130861639976501
aF0.1305907815694809
aF0.18927553296089172
aF0.1816311776638031
aF0.23292018473148346
aF0.24379390478134155
aF0.30484437942504883
aF0.371699720621109
aF0.29793310165405273
aF0.5646786093711853
aF0.5277880430221558
aF0.29664528369903564
aF0.25362348556518555
aF0.33352944254875183
aF0.409496545791626
aF0.33980464935302734
aF0.29847511649131775
aF0.31799018383026123
aF0.21635009348392487
aF0.27760303020477295
aF0.25916504859924316
aF0.2439049929380417
aF0.4699179232120514
aF0.4209293723106384
aF0.3449884355068207
aF0.46049344539642334
aF0.42626434564590454
aF0.2874009609222412
aF0.3384869694709778
aF0.3469111919403076
aF0.41185998916625977
aF0.452383816242218
aF0.41792547702789307
aF0.30893728137016296
aF0.32930245995521545
aF0.20249363780021667
aF0.47172755002975464
aF0.3516649305820465
aF0.43166452646255493
aF0.22491729259490967
aF0.23054665327072144
aF0.24687029421329498
aF0.2822519838809967
aF0.2989739179611206
aF0.32271865010261536
aF0.39462390542030334
aF0.2733115255832672
aF0.24760201573371887
aF0.24898605048656464
aF0.28970155119895935
aF0.3088143467903137
aF0.3970160186290741
aF0.4466569125652313
aF0.47399091720581055
aF0.29134759306907654
aF0.33206939697265625
aF0.30760055780410767
aF0.2858316898345947
aF0.2534675598144531
aF0.3302232623100281
aF0.3767576217651367
aF0.5025056600570679
aF0.4893631637096405
aF0.2599382996559143
aF0.23165471851825714
aF0.29791802167892456
aF0.29282474517822266
aF0.3340844511985779
aF0.274192750453949
aF0.28814688324928284
aF0.3167654275894165
aF0.18538078665733337
aF0.24307730793952942
aF0.3101436197757721
aF0.3083384037017822
aF0.1712699830532074
aF0.09773985296487808
aF0.13719454407691956
aF0.11154161393642426
aF0.3041127026081085
aF0.21132484078407288
aF0.2356773018836975
aF0.4620541036128998
aF0.2892932593822479
aF0.4654098451137543
aF0.3950372636318207
aF0.41373956203460693
aF0.18500491976737976
aF0.2775554060935974
aF0.36306139826774597
aF0.3755952715873718
aF0.39505714178085327
aF0.38995760679244995
aF0.33046141266822815
aF0.4370708465576172
aF0.37835660576820374
aF0.48311859369277954
aF0.341835618019104
aF0.3968084454536438
aF0.27655988931655884
aF0.3391627073287964
aF0.37296023964881897
aF0.39468592405319214
aF0.34003692865371704
aF0.2999950349330902
aF0.3191070854663849
aF0.23866984248161316
aF0.2688862085342407
aF0.3495577275753021
aF0.370159387588501
aF0.5090558528900146
aF0.4124829173088074
aF0.3102789521217346
aF0.19881734251976013
aF0.34443703293800354
aF0.3649545907974243
aF0.32066407799720764
aF0.43928560614585876
aF0.5173248648643494
aF0.5376812219619751
aF0.29345953464508057
aF0.5355634689331055
aF0.33022361993789673
aF0.40976470708847046
aF0.3607507050037384
aF0.4118647575378418
aF0.3610074520111084
aF0.4112767279148102
aF0.5191802382469177
aF0.41772159934043884
aF0.3575853705406189
aF0.37255844473838806
aF0.49836528301239014
aF0.3763471245765686
aF0.30354005098342896
aF0.4082005023956299
aF0.5040004253387451
aF0.43143683671951294
aF0.3591039776802063
aF0.32844769954681396
aF0.4086439907550812
aF0.4049241244792938
aF0.3856891691684723
aF0.4004531502723694
aF0.45405080914497375
aF0.37719130516052246
aF0.33058834075927734
aF0.33544090390205383
aF0.2314862608909607
aF0.4377089738845825
aF0.3257964849472046
aF0.34143030643463135
aF0.37419673800468445
aF0.3189190924167633
aF0.2699388265609741
aF0.23881539702415466
aF0.27435868978500366
aF0.3233512043952942
aF0.6884340047836304
aF0.16659530997276306
aF0.3103422522544861
aF0.3286722004413605
aF0.40553510189056396
aF0.29773423075675964
aF0.26822397112846375
asS'G_loss'
p7
(lp8
F4.914739608764648
aF4.785131454467773
aF4.742417335510254
aF5.095876693725586
aF2.031081199645996
aF4.188798904418945
aF5.379238128662109
aF8.487129211425781
aF6.149829864501953
aF6.3329758644104
aF7.570826530456543
aF4.9554643630981445
aF5.551852226257324
aF3.471449375152588
aF3.7911081314086914
aF3.874906539916992
aF4.613712787628174
aF4.365365982055664
aF4.717374324798584
aF4.781145095825195
aF6.417512893676758
aF3.0420942306518555
aF3.660823345184326
aF2.517897605895996
aF4.55126428604126
aF6.02309513092041
aF8.959931373596191
aF3.977140188217163
aF7.028132915496826
aF6.00448751449585
aF4.730890274047852
aF3.962453603744507
aF3.8800199031829834
aF6.530496597290039
aF2.9763567447662354
aF6.1397857666015625
aF4.398608684539795
aF6.334598541259766
aF3.506685256958008
aF4.379242420196533
aF2.837735652923584
aF3.3332908153533936
aF2.957723617553711
aF4.367341995239258
aF2.1735801696777344
aF2.4923267364501953
aF3.069148063659668
aF4.5802412033081055
aF2.147285223007202
aF2.549650192260742
aF3.4044220447540283
aF4.36558198928833
aF2.9582059383392334
aF4.296401023864746
aF4.872471809387207
aF3.7684905529022217
aF2.6014821529388428
aF3.632351875305176
aF3.4157748222351074
aF3.1299493312835693
aF2.956071138381958
aF2.866147041320801
aF3.2619564533233643
aF2.243379592895508
aF3.3096303939819336
aF2.026463031768799
aF2.075575351715088
aF2.1201324462890625
aF3.459635019302368
aF2.4982995986938477
aF3.623269557952881
aF2.250291109085083
aF4.902370929718018
aF1.6770281791687012
aF3.8377199172973633
aF4.174720764160156
aF4.044740200042725
aF4.207313537597656
aF3.182962656021118
aF2.7227060794830322
aF2.819498062133789
aF2.612555503845215
aF2.9550135135650635
aF3.363100528717041
aF3.178126811981201
aF1.8522851467132568
aF2.134019374847412
aF2.3608407974243164
aF2.297727108001709
aF2.824148654937744
aF2.5494673252105713
aF2.8302619457244873
aF2.8338961601257324
aF4.131903171539307
aF2.602768898010254
aF1.830724835395813
aF1.9062930345535278
aF1.7294197082519531
aF3.594125270843506
aF3.172231435775757
aF2.7605385780334473
aF2.6512584686279297
aF2.557814121246338
aF3.1681833267211914
aF3.685201644897461
aF3.068742275238037
aF3.0856704711914062
aF2.5715527534484863
aF3.508918523788452
aF2.4379749298095703
aF8.25802230834961
aF6.15219783782959
aF6.4279961585998535
aF5.480989933013916
aF4.514760971069336
aF5.2385101318359375
aF2.9987902641296387
aF2.8808231353759766
aF3.1127405166625977
aF3.0134987831115723
aF2.9621171951293945
aF2.315316677093506
aF3.551901340484619
aF2.401489496231079
aF2.7020294666290283
aF3.085196018218994
aF2.8909614086151123
aF2.6461570262908936
aF3.0369951725006104
aF2.0945613384246826
aF2.620197057723999
aF2.047593355178833
aF2.5407233238220215
aF2.7406585216522217
aF2.1403586864471436
aF2.1458661556243896
aF2.5254108905792236
aF2.008331060409546
aF2.616018056869507
aF3.107471227645874
aF2.315070867538452
aF2.860966682434082
aF3.1971797943115234
aF3.032144784927368
aF2.274001359939575
aF2.471230983734131
aF2.358353614807129
aF2.6501495838165283
aF3.334904432296753
aF2.440293788909912
aF2.3559670448303223
aF2.5888848304748535
aF2.743730068206787
aF2.5488579273223877
aF2.6780219078063965
aF2.2744476795196533
aF2.0129075050354004
aF2.733386278152466
aF1.813992977142334
aF2.828158378601074
aF2.4253859519958496
aF2.133237361907959
aF2.5864102840423584
aF2.7821836471557617
aF2.4651734828948975
aF3.153332471847534
aF2.6003334522247314
aF2.199061155319214
aF2.491089105606079
aF2.825216293334961
aF2.453373908996582
aF2.3951308727264404
aF2.208631992340088
aF1.8892101049423218
aF2.593229055404663
aF2.2301299571990967
aF2.4102392196655273
aF2.281214714050293
aF2.543001174926758
aF1.8960844278335571
aF2.129505157470703
aF2.8015716075897217
aF2.4266037940979004
aF3.3420112133026123
aF2.201235294342041
aF2.4788293838500977
aF2.1184897422790527
aF2.3097565174102783
aF2.530766248703003
aF2.4425766468048096
aF2.774729013442993
aF2.702308416366577
aF2.3419528007507324
aF1.8030041456222534
aF3.44718599319458
aF2.2215373516082764
aF2.424596071243286
aF2.38238525390625
aF2.215294122695923
aF2.765307903289795
asb.