(i__main__
LossModule
p0
(dp1
S'Many_G_loss'
p2
(lp3
(lp4
ag4
ag4
ag4
asS'D_loss'
p5
(lp6
F0.3213871717453003
aF0.24179822206497192
aF0.41418567299842834
aF0.44216564297676086
aF0.6287057399749756
aF0.160514235496521
aF0.3979611396789551
aF0.3476509153842926
aF0.3250424265861511
aF0.216170996427536
aF0.2495313584804535
aF0.3002094328403473
aF0.28841641545295715
aF0.2321387231349945
aF0.3134068250656128
aF0.31920719146728516
aF0.3208465576171875
aF0.3075179159641266
aF0.44740158319473267
aF0.19758862257003784
aF0.2547723054885864
aF0.22789686918258667
aF0.16379933059215546
aF0.3672570586204529
aF0.3605780005455017
aF0.3409343659877777
aF0.3257690966129303
aF0.3767474293708801
aF0.4720936119556427
aF0.26010242104530334
aF0.4723774790763855
aF0.4111904799938202
aF0.5157724022865295
aF0.4995322823524475
aF0.5639625787734985
aF0.3198877274990082
aF0.47317856550216675
aF0.3951696753501892
aF0.5331871509552002
aF0.3874660134315491
aF0.4791087508201599
aF0.296403706073761
aF0.3548991084098816
aF0.45588499307632446
aF0.5146588087081909
aF0.32144346833229065
aF0.42779624462127686
aF0.901800274848938
aF0.6188275218009949
aF0.49845200777053833
aF0.6231972575187683
aF0.4793204367160797
aF0.5921369194984436
aF0.6752098798751831
aF0.6480987071990967
aF0.6562378406524658
aF0.4614415764808655
aF0.6139860153198242
aF0.6203386187553406
aF0.5119724273681641
aF0.5648263096809387
aF0.6355727910995483
aF0.5689057111740112
aF0.7162553668022156
aF0.8485552072525024
aF0.47273024916648865
aF0.48982512950897217
aF0.58659827709198
aF0.695601224899292
aF0.5597478151321411
aF0.47285836935043335
aF0.541613757610321
aF0.6047210693359375
aF0.5218847990036011
aF0.5962333083152771
aF0.5116665959358215
aF0.6243476867675781
aF0.4820309281349182
aF0.5829198956489563
aF0.6981009244918823
aF0.5069265365600586
aF0.5133070349693298
aF0.6794140338897705
aF0.6332368850708008
aF0.571632981300354
aF0.624645471572876
aF0.6965736150741577
aF0.4522612690925598
aF0.8428241610527039
aF0.5870485305786133
aF0.5567831993103027
aF0.7184046506881714
aF0.6052078604698181
aF0.8249330520629883
aF0.7602512836456299
aF0.6421793103218079
aF0.7892088890075684
aF0.6452797055244446
aF0.5488588809967041
aF0.6947758793830872
aF0.7658624053001404
aF0.6223177909851074
aF0.6601197719573975
aF0.7338769435882568
aF0.7369101047515869
aF0.7958506345748901
aF0.6963441371917725
aF0.7623541355133057
aF0.7415557503700256
aF0.7650618553161621
aF0.7998718023300171
aF0.8971234560012817
aF0.8761210441589355
aF0.6846833229064941
aF0.7865965366363525
aF0.8472092151641846
aF0.6293549537658691
aF0.8645203113555908
aF0.7573283314704895
aF0.6866686344146729
aF0.7151960730552673
aF0.8108075857162476
aF0.7248995304107666
aF0.8006575703620911
aF0.7317166328430176
aF0.7083135843276978
aF0.8051671981811523
aF0.7388061285018921
aF0.7773169875144958
aF0.7574712038040161
aF0.763755202293396
aF0.8406556844711304
aF0.7420995235443115
aF0.7740595936775208
aF0.8009517192840576
aF0.6979696750640869
aF0.7024252414703369
aF0.8593196868896484
aF0.8122421503067017
aF0.8620866537094116
aF0.7818472981452942
aF0.7898580431938171
aF0.800836443901062
aF0.7641534805297852
aF0.6488197445869446
aF0.71275395154953
aF0.6471356749534607
aF0.876836895942688
aF0.7457808256149292
aF0.7108075618743896
aF0.7249629497528076
aF0.8158771991729736
aF0.7630652785301208
aF0.6575469970703125
aF0.7029509544372559
aF0.7676913142204285
aF0.8521583676338196
aF0.7598183155059814
aF0.7853602170944214
aF0.8682969808578491
aF0.7767901420593262
aF0.8241477608680725
aF0.7105741500854492
aF0.7325770854949951
aF0.718049168586731
aF0.6798710823059082
aF0.6760473251342773
aF0.8082499504089355
aF0.8642714023590088
aF0.6932277679443359
aF0.6816099882125854
aF0.7859190106391907
aF0.6853408813476562
aF0.7442325949668884
aF0.7938679456710815
aF0.7481681108474731
aF0.7167261838912964
aF0.632516086101532
aF0.6837457418441772
aF0.6870923042297363
aF0.8084348440170288
aF0.7374835014343262
aF0.749933123588562
aF0.8226353526115417
aF0.7517602443695068
aF0.8074144124984741
aF0.7904706001281738
aF0.7094662189483643
aF0.7806068062782288
aF0.7524914741516113
aF0.7785098552703857
aF0.7826244831085205
aF0.7605757713317871
aF0.7822362184524536
aF0.8256422281265259
aF0.7959744930267334
aF0.7899691462516785
aF0.742537260055542
aF0.9226810932159424
aF0.826525092124939
asS'G_loss'
p7
(lp8
F5.213734149932861
aF3.7440385818481445
aF3.0045664310455322
aF2.4272985458374023
aF1.8815933465957642
aF3.4042890071868896
aF1.469252586364746
aF0.3973011076450348
aF0.6209695339202881
aF0.44851624965667725
aF0.20533782243728638
aF1.4603310823440552
aF1.558118462562561
aF2.7494585514068604
aF3.41416072845459
aF2.992832660675049
aF2.403233289718628
aF0.47302016615867615
aF1.1851733922958374
aF0.6679380536079407
aF3.0442144870758057
aF1.6079776287078857
aF0.584341824054718
aF0.2637588083744049
aF0.582848072052002
aF2.014378547668457
aF2.7468676567077637
aF1.5583654642105103
aF3.6156222820281982
aF0.5416871905326843
aF1.4772419929504395
aF1.209463357925415
aF0.028827980160713196
aF0.8355682492256165
aF0.8574473857879639
aF2.6532297134399414
aF0.6215705275535583
aF2.3991549015045166
aF1.3861126899719238
aF0.8096088171005249
aF0.294928640127182
aF0.054380059242248535
aF0.10817091912031174
aF0.3246697187423706
aF0.31214776635169983
aF1.472892165184021
aF0.2424946278333664
aF1.1457463502883911
aF1.359591007232666
aF0.642345666885376
aF1.0057597160339355
aF0.5788736939430237
aF1.0457830429077148
aF1.308510422706604
aF2.357602596282959
aF1.3485890626907349
aF1.9667222499847412
aF0.49721118807792664
aF0.5421975255012512
aF0.7068800330162048
aF0.8506007194519043
aF0.9165657162666321
aF1.022843599319458
aF1.171424388885498
aF1.825083613395691
aF1.700809121131897
aF1.2979965209960938
aF1.298098087310791
aF0.8597232699394226
aF0.684837818145752
aF0.9564118981361389
aF1.39870023727417
aF1.8887460231781006
aF1.5156173706054688
aF0.7723713517189026
aF1.7564409971237183
aF1.606478214263916
aF1.3614345788955688
aF2.018125534057617
aF1.9002737998962402
aF1.184126377105713
aF2.105706214904785
aF1.0005748271942139
aF0.7471237778663635
aF0.42740169167518616
aF1.351409912109375
aF1.2562150955200195
aF1.534925937652588
aF1.194976806640625
aF1.1635737419128418
aF1.3781540393829346
aF1.5584197044372559
aF0.8345210552215576
aF0.6146630048751831
aF0.9753134846687317
aF1.1104680299758911
aF1.3509994745254517
aF1.3861932754516602
aF1.349178433418274
aF1.520896553993225
aF1.449507713317871
aF1.5828174352645874
aF1.0697245597839355
aF1.0976253747940063
aF1.4410150051116943
aF1.4534790515899658
aF1.617558479309082
aF1.580928921699524
aF1.267857551574707
aF1.5143502950668335
aF1.2560638189315796
aF1.726444125175476
aF1.684498906135559
aF1.596590280532837
aF1.4318761825561523
aF1.8470356464385986
aF1.6040610074996948
aF1.6471596956253052
aF1.6772538423538208
aF1.3316503763198853
aF1.5145788192749023
aF1.767811894416809
aF1.9031161069869995
aF1.8590724468231201
aF1.4846105575561523
aF1.4730006456375122
aF1.5757979154586792
aF1.319869041442871
aF1.630192518234253
aF1.586840033531189
aF1.6628003120422363
aF1.328536033630371
aF1.7315800189971924
aF1.2211167812347412
aF2.1359970569610596
aF1.290044903755188
aF1.7854984998703003
aF1.4376678466796875
aF1.8105168342590332
aF1.1141877174377441
aF1.422446608543396
aF1.7959076166152954
aF1.4409575462341309
aF1.622855544090271
aF1.9366384744644165
aF1.4396405220031738
aF1.714052677154541
aF1.0794050693511963
aF1.4270873069763184
aF1.659590482711792
aF1.595789909362793
aF2.100661277770996
aF1.6542046070098877
aF1.112588882446289
aF1.142136573791504
aF1.4608913660049438
aF1.461220383644104
aF1.6908358335494995
aF1.700406789779663
aF1.4279754161834717
aF1.5493535995483398
aF1.5316085815429688
aF1.4260884523391724
aF2.3893685340881348
aF1.6502631902694702
aF1.2965087890625
aF1.512978196144104
aF1.5834450721740723
aF1.5936022996902466
aF1.5959603786468506
aF1.6627179384231567
aF1.6501846313476562
aF1.9213122129440308
aF1.7188100814819336
aF1.7785142660140991
aF1.8990211486816406
aF1.1241308450698853
aF1.7285226583480835
aF1.5220924615859985
aF1.634976863861084
aF1.3954812288284302
aF1.8905322551727295
aF1.8170475959777832
aF1.2783291339874268
aF1.7270361185073853
aF1.971093773841858
aF1.6728132963180542
aF1.6411175727844238
aF1.8911024332046509
aF1.1519324779510498
aF1.4629199504852295
aF1.7524582147598267
aF2.179776668548584
aF1.7134594917297363
aF1.8082077503204346
aF1.8423149585723877
aF1.7251489162445068
aF1.1330862045288086
aF1.8741028308868408
aF2.2793726921081543
asb.