(i__main__
LossModule
p0
(dp1
S'Many_G_loss'
p2
(lp3
(lp4
ccopy_reg
__newobj__
p5
(ctorch.autograd.variable
Variable
p6
ctorch._utils
_rebuild_tensor
p7
(ctorch
FloatStorage
p8
((lp9
F5.5260467529296875
atp10
Rp11
I0
(L1L
tp12
(L1L
tp13
tp14
Rp15
tp16
Rp17
(I01
I00
Ntp18
bag5
(g6
g7
(g8
((lp19
F6.464040756225586
atp20
Rp21
I0
(L1L
tp22
(L1L
tp23
tp24
Rp25
tp26
Rp27
(I01
I00
Ntp28
bag5
(g6
g7
(g8
((lp29
F7.2707343101501465
atp30
Rp31
I0
(L1L
tp32
(L1L
tp33
tp34
Rp35
tp36
Rp37
(I01
I00
Ntp38
bag5
(g6
g7
(g8
((lp39
F4.804922580718994
atp40
Rp41
I0
(L1L
tp42
(L1L
tp43
tp44
Rp45
tp46
Rp47
(I01
I00
Ntp48
bag5
(g6
g7
(g8
((lp49
F4.275192737579346
atp50
Rp51
I0
(L1L
tp52
(L1L
tp53
tp54
Rp55
tp56
Rp57
(I01
I00
Ntp58
bag5
(g6
g7
(g8
((lp59
F4.2093329429626465
atp60
Rp61
I0
(L1L
tp62
(L1L
tp63
tp64
Rp65
tp66
Rp67
(I01
I00
Ntp68
bag5
(g6
g7
(g8
((lp69
F6.438621997833252
atp70
Rp71
I0
(L1L
tp72
(L1L
tp73
tp74
Rp75
tp76
Rp77
(I01
I00
Ntp78
bag5
(g6
g7
(g8
((lp79
F5.219793796539307
atp80
Rp81
I0
(L1L
tp82
(L1L
tp83
tp84
Rp85
tp86
Rp87
(I01
I00
Ntp88
bag5
(g6
g7
(g8
((lp89
F4.475424289703369
atp90
Rp91
I0
(L1L
tp92
(L1L
tp93
tp94
Rp95
tp96
Rp97
(I01
I00
Ntp98
bag5
(g6
g7
(g8
((lp99
F3.0723016262054443
atp100
Rp101
I0
(L1L
tp102
(L1L
tp103
tp104
Rp105
tp106
Rp107
(I01
I00
Ntp108
bag5
(g6
g7
(g8
((lp109
F2.163273811340332
atp110
Rp111
I0
(L1L
tp112
(L1L
tp113
tp114
Rp115
tp116
Rp117
(I01
I00
Ntp118
bag5
(g6
g7
(g8
((lp119
F4.135138034820557
atp120
Rp121
I0
(L1L
tp122
(L1L
tp123
tp124
Rp125
tp126
Rp127
(I01
I00
Ntp128
bag5
(g6
g7
(g8
((lp129
F1.7312983274459839
atp130
Rp131
I0
(L1L
tp132
(L1L
tp133
tp134
Rp135
tp136
Rp137
(I01
I00
Ntp138
bag5
(g6
g7
(g8
((lp139
F1.5157123804092407
atp140
Rp141
I0
(L1L
tp142
(L1L
tp143
tp144
Rp145
tp146
Rp147
(I01
I00
Ntp148
bag5
(g6
g7
(g8
((lp149
F1.5245003700256348
atp150
Rp151
I0
(L1L
tp152
(L1L
tp153
tp154
Rp155
tp156
Rp157
(I01
I00
Ntp158
bag5
(g6
g7
(g8
((lp159
F5.355067253112793
atp160
Rp161
I0
(L1L
tp162
(L1L
tp163
tp164
Rp165
tp166
Rp167
(I01
I00
Ntp168
bag5
(g6
g7
(g8
((lp169
F5.548555374145508
atp170
Rp171
I0
(L1L
tp172
(L1L
tp173
tp174
Rp175
tp176
Rp177
(I01
I00
Ntp178
bag5
(g6
g7
(g8
((lp179
F3.796206474304199
atp180
Rp181
I0
(L1L
tp182
(L1L
tp183
tp184
Rp185
tp186
Rp187
(I01
I00
Ntp188
bag5
(g6
g7
(g8
((lp189
F7.643667697906494
atp190
Rp191
I0
(L1L
tp192
(L1L
tp193
tp194
Rp195
tp196
Rp197
(I01
I00
Ntp198
bag5
(g6
g7
(g8
((lp199
F9.254656791687012
atp200
Rp201
I0
(L1L
tp202
(L1L
tp203
tp204
Rp205
tp206
Rp207
(I01
I00
Ntp208
bag5
(g6
g7
(g8
((lp209
F6.972722053527832
atp210
Rp211
I0
(L1L
tp212
(L1L
tp213
tp214
Rp215
tp216
Rp217
(I01
I00
Ntp218
bag5
(g6
g7
(g8
((lp219
F6.006535530090332
atp220
Rp221
I0
(L1L
tp222
(L1L
tp223
tp224
Rp225
tp226
Rp227
(I01
I00
Ntp228
bag5
(g6
g7
(g8
((lp229
F9.221628189086914
atp230
Rp231
I0
(L1L
tp232
(L1L
tp233
tp234
Rp235
tp236
Rp237
(I01
I00
Ntp238
bag5
(g6
g7
(g8
((lp239
F7.033538818359375
atp240
Rp241
I0
(L1L
tp242
(L1L
tp243
tp244
Rp245
tp246
Rp247
(I01
I00
Ntp248
bag5
(g6
g7
(g8
((lp249
F5.702571392059326
atp250
Rp251
I0
(L1L
tp252
(L1L
tp253
tp254
Rp255
tp256
Rp257
(I01
I00
Ntp258
bag5
(g6
g7
(g8
((lp259
F7.2864155769348145
atp260
Rp261
I0
(L1L
tp262
(L1L
tp263
tp264
Rp265
tp266
Rp267
(I01
I00
Ntp268
bag5
(g6
g7
(g8
((lp269
F5.104979038238525
atp270
Rp271
I0
(L1L
tp272
(L1L
tp273
tp274
Rp275
tp276
Rp277
(I01
I00
Ntp278
bag5
(g6
g7
(g8
((lp279
F5.111937046051025
atp280
Rp281
I0
(L1L
tp282
(L1L
tp283
tp284
Rp285
tp286
Rp287
(I01
I00
Ntp288
bag5
(g6
g7
(g8
((lp289
F6.0380024909973145
atp290
Rp291
I0
(L1L
tp292
(L1L
tp293
tp294
Rp295
tp296
Rp297
(I01
I00
Ntp298
bag5
(g6
g7
(g8
((lp299
F6.126898765563965
atp300
Rp301
I0
(L1L
tp302
(L1L
tp303
tp304
Rp305
tp306
Rp307
(I01
I00
Ntp308
bag5
(g6
g7
(g8
((lp309
F9.42114543914795
atp310
Rp311
I0
(L1L
tp312
(L1L
tp313
tp314
Rp315
tp316
Rp317
(I01
I00
Ntp318
bag5
(g6
g7
(g8
((lp319
F8.838563919067383
atp320
Rp321
I0
(L1L
tp322
(L1L
tp323
tp324
Rp325
tp326
Rp327
(I01
I00
Ntp328
bag5
(g6
g7
(g8
((lp329
F9.129836082458496
atp330
Rp331
I0
(L1L
tp332
(L1L
tp333
tp334
Rp335
tp336
Rp337
(I01
I00
Ntp338
bag5
(g6
g7
(g8
((lp339
F7.390615463256836
atp340
Rp341
I0
(L1L
tp342
(L1L
tp343
tp344
Rp345
tp346
Rp347
(I01
I00
Ntp348
bag5
(g6
g7
(g8
((lp349
F5.670350551605225
atp350
Rp351
I0
(L1L
tp352
(L1L
tp353
tp354
Rp355
tp356
Rp357
(I01
I00
Ntp358
bag5
(g6
g7
(g8
((lp359
F5.994284152984619
atp360
Rp361
I0
(L1L
tp362
(L1L
tp363
tp364
Rp365
tp366
Rp367
(I01
I00
Ntp368
bag5
(g6
g7
(g8
((lp369
F6.8985676765441895
atp370
Rp371
I0
(L1L
tp372
(L1L
tp373
tp374
Rp375
tp376
Rp377
(I01
I00
Ntp378
bag5
(g6
g7
(g8
((lp379
F6.22930908203125
atp380
Rp381
I0
(L1L
tp382
(L1L
tp383
tp384
Rp385
tp386
Rp387
(I01
I00
Ntp388
bag5
(g6
g7
(g8
((lp389
F4.045510292053223
atp390
Rp391
I0
(L1L
tp392
(L1L
tp393
tp394
Rp395
tp396
Rp397
(I01
I00
Ntp398
bag5
(g6
g7
(g8
((lp399
F4.468717575073242
atp400
Rp401
I0
(L1L
tp402
(L1L
tp403
tp404
Rp405
tp406
Rp407
(I01
I00
Ntp408
bag5
(g6
g7
(g8
((lp409
F5.882609844207764
atp410
Rp411
I0
(L1L
tp412
(L1L
tp413
tp414
Rp415
tp416
Rp417
(I01
I00
Ntp418
bag5
(g6
g7
(g8
((lp419
F3.6490225791931152
atp420
Rp421
I0
(L1L
tp422
(L1L
tp423
tp424
Rp425
tp426
Rp427
(I01
I00
Ntp428
bag5
(g6
g7
(g8
((lp429
F4.052381992340088
atp430
Rp431
I0
(L1L
tp432
(L1L
tp433
tp434
Rp435
tp436
Rp437
(I01
I00
Ntp438
bag5
(g6
g7
(g8
((lp439
F4.567956924438477
atp440
Rp441
I0
(L1L
tp442
(L1L
tp443
tp444
Rp445
tp446
Rp447
(I01
I00
Ntp448
bag5
(g6
g7
(g8
((lp449
F5.1628875732421875
atp450
Rp451
I0
(L1L
tp452
(L1L
tp453
tp454
Rp455
tp456
Rp457
(I01
I00
Ntp458
bag5
(g6
g7
(g8
((lp459
F16.23255157470703
atp460
Rp461
I0
(L1L
tp462
(L1L
tp463
tp464
Rp465
tp466
Rp467
(I01
I00
Ntp468
bag5
(g6
g7
(g8
((lp469
F8.42112922668457
atp470
Rp471
I0
(L1L
tp472
(L1L
tp473
tp474
Rp475
tp476
Rp477
(I01
I00
Ntp478
bag5
(g6
g7
(g8
((lp479
F9.899645805358887
atp480
Rp481
I0
(L1L
tp482
(L1L
tp483
tp484
Rp485
tp486
Rp487
(I01
I00
Ntp488
bag5
(g6
g7
(g8
((lp489
F7.326030731201172
atp490
Rp491
I0
(L1L
tp492
(L1L
tp493
tp494
Rp495
tp496
Rp497
(I01
I00
Ntp498
bag5
(g6
g7
(g8
((lp499
F6.869828701019287
atp500
Rp501
I0
(L1L
tp502
(L1L
tp503
tp504
Rp505
tp506
Rp507
(I01
I00
Ntp508
bag5
(g6
g7
(g8
((lp509
F7.546571731567383
atp510
Rp511
I0
(L1L
tp512
(L1L
tp513
tp514
Rp515
tp516
Rp517
(I01
I00
Ntp518
bag5
(g6
g7
(g8
((lp519
F6.471703052520752
atp520
Rp521
I0
(L1L
tp522
(L1L
tp523
tp524
Rp525
tp526
Rp527
(I01
I00
Ntp528
bag5
(g6
g7
(g8
((lp529
F4.722709655761719
atp530
Rp531
I0
(L1L
tp532
(L1L
tp533
tp534
Rp535
tp536
Rp537
(I01
I00
Ntp538
bag5
(g6
g7
(g8
((lp539
F5.654778003692627
atp540
Rp541
I0
(L1L
tp542
(L1L
tp543
tp544
Rp545
tp546
Rp547
(I01
I00
Ntp548
bag5
(g6
g7
(g8
((lp549
F7.932183265686035
atp550
Rp551
I0
(L1L
tp552
(L1L
tp553
tp554
Rp555
tp556
Rp557
(I01
I00
Ntp558
bag5
(g6
g7
(g8
((lp559
F6.113978385925293
atp560
Rp561
I0
(L1L
tp562
(L1L
tp563
tp564
Rp565
tp566
Rp567
(I01
I00
Ntp568
bag5
(g6
g7
(g8
((lp569
F5.179487228393555
atp570
Rp571
I0
(L1L
tp572
(L1L
tp573
tp574
Rp575
tp576
Rp577
(I01
I00
Ntp578
bag5
(g6
g7
(g8
((lp579
F5.56907844543457
atp580
Rp581
I0
(L1L
tp582
(L1L
tp583
tp584
Rp585
tp586
Rp587
(I01
I00
Ntp588
bag5
(g6
g7
(g8
((lp589
F5.216787338256836
atp590
Rp591
I0
(L1L
tp592
(L1L
tp593
tp594
Rp595
tp596
Rp597
(I01
I00
Ntp598
bag5
(g6
g7
(g8
((lp599
F5.23336935043335
atp600
Rp601
I0
(L1L
tp602
(L1L
tp603
tp604
Rp605
tp606
Rp607
(I01
I00
Ntp608
bag5
(g6
g7
(g8
((lp609
F2.5545759201049805
atp610
Rp611
I0
(L1L
tp612
(L1L
tp613
tp614
Rp615
tp616
Rp617
(I01
I00
Ntp618
bag5
(g6
g7
(g8
((lp619
F3.6136364936828613
atp620
Rp621
I0
(L1L
tp622
(L1L
tp623
tp624
Rp625
tp626
Rp627
(I01
I00
Ntp628
bag5
(g6
g7
(g8
((lp629
F4.5179948806762695
atp630
Rp631
I0
(L1L
tp632
(L1L
tp633
tp634
Rp635
tp636
Rp637
(I01
I00
Ntp638
bag5
(g6
g7
(g8
((lp639
F6.717081069946289
atp640
Rp641
I0
(L1L
tp642
(L1L
tp643
tp644
Rp645
tp646
Rp647
(I01
I00
Ntp648
bag5
(g6
g7
(g8
((lp649
F6.938515663146973
atp650
Rp651
I0
(L1L
tp652
(L1L
tp653
tp654
Rp655
tp656
Rp657
(I01
I00
Ntp658
bag5
(g6
g7
(g8
((lp659
F6.825572490692139
atp660
Rp661
I0
(L1L
tp662
(L1L
tp663
tp664
Rp665
tp666
Rp667
(I01
I00
Ntp668
bag5
(g6
g7
(g8
((lp669
F8.154122352600098
atp670
Rp671
I0
(L1L
tp672
(L1L
tp673
tp674
Rp675
tp676
Rp677
(I01
I00
Ntp678
bag5
(g6
g7
(g8
((lp679
F7.075845718383789
atp680
Rp681
I0
(L1L
tp682
(L1L
tp683
tp684
Rp685
tp686
Rp687
(I01
I00
Ntp688
bag5
(g6
g7
(g8
((lp689
F5.5591840744018555
atp690
Rp691
I0
(L1L
tp692
(L1L
tp693
tp694
Rp695
tp696
Rp697
(I01
I00
Ntp698
bag5
(g6
g7
(g8
((lp699
F4.151190280914307
atp700
Rp701
I0
(L1L
tp702
(L1L
tp703
tp704
Rp705
tp706
Rp707
(I01
I00
Ntp708
bag5
(g6
g7
(g8
((lp709
F4.256434440612793
atp710
Rp711
I0
(L1L
tp712
(L1L
tp713
tp714
Rp715
tp716
Rp717
(I01
I00
Ntp718
bag5
(g6
g7
(g8
((lp719
F4.41302490234375
atp720
Rp721
I0
(L1L
tp722
(L1L
tp723
tp724
Rp725
tp726
Rp727
(I01
I00
Ntp728
bag5
(g6
g7
(g8
((lp729
F3.310452461242676
atp730
Rp731
I0
(L1L
tp732
(L1L
tp733
tp734
Rp735
tp736
Rp737
(I01
I00
Ntp738
bag5
(g6
g7
(g8
((lp739
F3.1938703060150146
atp740
Rp741
I0
(L1L
tp742
(L1L
tp743
tp744
Rp745
tp746
Rp747
(I01
I00
Ntp748
bag5
(g6
g7
(g8
((lp749
F3.053445816040039
atp750
Rp751
I0
(L1L
tp752
(L1L
tp753
tp754
Rp755
tp756
Rp757
(I01
I00
Ntp758
bag5
(g6
g7
(g8
((lp759
F6.416445255279541
atp760
Rp761
I0
(L1L
tp762
(L1L
tp763
tp764
Rp765
tp766
Rp767
(I01
I00
Ntp768
bag5
(g6
g7
(g8
((lp769
F5.5186944007873535
atp770
Rp771
I0
(L1L
tp772
(L1L
tp773
tp774
Rp775
tp776
Rp777
(I01
I00
Ntp778
bag5
(g6
g7
(g8
((lp779
F5.204964637756348
atp780
Rp781
I0
(L1L
tp782
(L1L
tp783
tp784
Rp785
tp786
Rp787
(I01
I00
Ntp788
bag5
(g6
g7
(g8
((lp789
F3.3786401748657227
atp790
Rp791
I0
(L1L
tp792
(L1L
tp793
tp794
Rp795
tp796
Rp797
(I01
I00
Ntp798
bag5
(g6
g7
(g8
((lp799
F4.694899082183838
atp800
Rp801
I0
(L1L
tp802
(L1L
tp803
tp804
Rp805
tp806
Rp807
(I01
I00
Ntp808
bag5
(g6
g7
(g8
((lp809
F3.6859514713287354
atp810
Rp811
I0
(L1L
tp812
(L1L
tp813
tp814
Rp815
tp816
Rp817
(I01
I00
Ntp818
bag5
(g6
g7
(g8
((lp819
F5.316085338592529
atp820
Rp821
I0
(L1L
tp822
(L1L
tp823
tp824
Rp825
tp826
Rp827
(I01
I00
Ntp828
bag5
(g6
g7
(g8
((lp829
F6.778360366821289
atp830
Rp831
I0
(L1L
tp832
(L1L
tp833
tp834
Rp835
tp836
Rp837
(I01
I00
Ntp838
bag5
(g6
g7
(g8
((lp839
F5.9505133628845215
atp840
Rp841
I0
(L1L
tp842
(L1L
tp843
tp844
Rp845
tp846
Rp847
(I01
I00
Ntp848
bag5
(g6
g7
(g8
((lp849
F7.424314975738525
atp850
Rp851
I0
(L1L
tp852
(L1L
tp853
tp854
Rp855
tp856
Rp857
(I01
I00
Ntp858
bag5
(g6
g7
(g8
((lp859
F6.305181980133057
atp860
Rp861
I0
(L1L
tp862
(L1L
tp863
tp864
Rp865
tp866
Rp867
(I01
I00
Ntp868
bag5
(g6
g7
(g8
((lp869
F6.742269515991211
atp870
Rp871
I0
(L1L
tp872
(L1L
tp873
tp874
Rp875
tp876
Rp877
(I01
I00
Ntp878
bag5
(g6
g7
(g8
((lp879
F4.444668769836426
atp880
Rp881
I0
(L1L
tp882
(L1L
tp883
tp884
Rp885
tp886
Rp887
(I01
I00
Ntp888
bag5
(g6
g7
(g8
((lp889
F4.645968437194824
atp890
Rp891
I0
(L1L
tp892
(L1L
tp893
tp894
Rp895
tp896
Rp897
(I01
I00
Ntp898
bag5
(g6
g7
(g8
((lp899
F4.192295074462891
atp900
Rp901
I0
(L1L
tp902
(L1L
tp903
tp904
Rp905
tp906
Rp907
(I01
I00
Ntp908
bag5
(g6
g7
(g8
((lp909
F3.0837132930755615
atp910
Rp911
I0
(L1L
tp912
(L1L
tp913
tp914
Rp915
tp916
Rp917
(I01
I00
Ntp918
bag5
(g6
g7
(g8
((lp919
F4.573244094848633
atp920
Rp921
I0
(L1L
tp922
(L1L
tp923
tp924
Rp925
tp926
Rp927
(I01
I00
Ntp928
bag5
(g6
g7
(g8
((lp929
F3.5334725379943848
atp930
Rp931
I0
(L1L
tp932
(L1L
tp933
tp934
Rp935
tp936
Rp937
(I01
I00
Ntp938
bag5
(g6
g7
(g8
((lp939
F3.0070574283599854
atp940
Rp941
I0
(L1L
tp942
(L1L
tp943
tp944
Rp945
tp946
Rp947
(I01
I00
Ntp948
bag5
(g6
g7
(g8
((lp949
F3.5876059532165527
atp950
Rp951
I0
(L1L
tp952
(L1L
tp953
tp954
Rp955
tp956
Rp957
(I01
I00
Ntp958
bag5
(g6
g7
(g8
((lp959
F3.313882827758789
atp960
Rp961
I0
(L1L
tp962
(L1L
tp963
tp964
Rp965
tp966
Rp967
(I01
I00
Ntp968
bag5
(g6
g7
(g8
((lp969
F2.428997278213501
atp970
Rp971
I0
(L1L
tp972
(L1L
tp973
tp974
Rp975
tp976
Rp977
(I01
I00
Ntp978
bag5
(g6
g7
(g8
((lp979
F2.2338147163391113
atp980
Rp981
I0
(L1L
tp982
(L1L
tp983
tp984
Rp985
tp986
Rp987
(I01
I00
Ntp988
bag5
(g6
g7
(g8
((lp989
F2.3024330139160156
atp990
Rp991
I0
(L1L
tp992
(L1L
tp993
tp994
Rp995
tp996
Rp997
(I01
I00
Ntp998
bag5
(g6
g7
(g8
((lp999
F3.7989003658294678
atp1000
Rp1001
I0
(L1L
tp1002
(L1L
tp1003
tp1004
Rp1005
tp1006
Rp1007
(I01
I00
Ntp1008
bag5
(g6
g7
(g8
((lp1009
F3.250419855117798
atp1010
Rp1011
I0
(L1L
tp1012
(L1L
tp1013
tp1014
Rp1015
tp1016
Rp1017
(I01
I00
Ntp1018
bag5
(g6
g7
(g8
((lp1019
F3.332042932510376
atp1020
Rp1021
I0
(L1L
tp1022
(L1L
tp1023
tp1024
Rp1025
tp1026
Rp1027
(I01
I00
Ntp1028
bag5
(g6
g7
(g8
((lp1029
F4.218411922454834
atp1030
Rp1031
I0
(L1L
tp1032
(L1L
tp1033
tp1034
Rp1035
tp1036
Rp1037
(I01
I00
Ntp1038
bag5
(g6
g7
(g8
((lp1039
F4.213942527770996
atp1040
Rp1041
I0
(L1L
tp1042
(L1L
tp1043
tp1044
Rp1045
tp1046
Rp1047
(I01
I00
Ntp1048
bag5
(g6
g7
(g8
((lp1049
F3.7699592113494873
atp1050
Rp1051
I0
(L1L
tp1052
(L1L
tp1053
tp1054
Rp1055
tp1056
Rp1057
(I01
I00
Ntp1058
bag5
(g6
g7
(g8
((lp1059
F4.117396354675293
atp1060
Rp1061
I0
(L1L
tp1062
(L1L
tp1063
tp1064
Rp1065
tp1066
Rp1067
(I01
I00
Ntp1068
bag5
(g6
g7
(g8
((lp1069
F3.509065628051758
atp1070
Rp1071
I0
(L1L
tp1072
(L1L
tp1073
tp1074
Rp1075
tp1076
Rp1077
(I01
I00
Ntp1078
bag5
(g6
g7
(g8
((lp1079
F3.8057403564453125
atp1080
Rp1081
I0
(L1L
tp1082
(L1L
tp1083
tp1084
Rp1085
tp1086
Rp1087
(I01
I00
Ntp1088
bag5
(g6
g7
(g8
((lp1089
F3.6725211143493652
atp1090
Rp1091
I0
(L1L
tp1092
(L1L
tp1093
tp1094
Rp1095
tp1096
Rp1097
(I01
I00
Ntp1098
bag5
(g6
g7
(g8
((lp1099
F3.4312963485717773
atp1100
Rp1101
I0
(L1L
tp1102
(L1L
tp1103
tp1104
Rp1105
tp1106
Rp1107
(I01
I00
Ntp1108
bag5
(g6
g7
(g8
((lp1109
F2.8304848670959473
atp1110
Rp1111
I0
(L1L
tp1112
(L1L
tp1113
tp1114
Rp1115
tp1116
Rp1117
(I01
I00
Ntp1118
bag5
(g6
g7
(g8
((lp1119
F5.0437541007995605
atp1120
Rp1121
I0
(L1L
tp1122
(L1L
tp1123
tp1124
Rp1125
tp1126
Rp1127
(I01
I00
Ntp1128
bag5
(g6
g7
(g8
((lp1129
F5.186208724975586
atp1130
Rp1131
I0
(L1L
tp1132
(L1L
tp1133
tp1134
Rp1135
tp1136
Rp1137
(I01
I00
Ntp1138
bag5
(g6
g7
(g8
((lp1139
F5.006408214569092
atp1140
Rp1141
I0
(L1L
tp1142
(L1L
tp1143
tp1144
Rp1145
tp1146
Rp1147
(I01
I00
Ntp1148
bag5
(g6
g7
(g8
((lp1149
F1.5665059089660645
atp1150
Rp1151
I0
(L1L
tp1152
(L1L
tp1153
tp1154
Rp1155
tp1156
Rp1157
(I01
I00
Ntp1158
bag5
(g6
g7
(g8
((lp1159
F1.7338682413101196
atp1160
Rp1161
I0
(L1L
tp1162
(L1L
tp1163
tp1164
Rp1165
tp1166
Rp1167
(I01
I00
Ntp1168
bag5
(g6
g7
(g8
((lp1169
F1.3284516334533691
atp1170
Rp1171
I0
(L1L
tp1172
(L1L
tp1173
tp1174
Rp1175
tp1176
Rp1177
(I01
I00
Ntp1178
bag5
(g6
g7
(g8
((lp1179
F2.8706185817718506
atp1180
Rp1181
I0
(L1L
tp1182
(L1L
tp1183
tp1184
Rp1185
tp1186
Rp1187
(I01
I00
Ntp1188
bag5
(g6
g7
(g8
((lp1189
F3.217752456665039
atp1190
Rp1191
I0
(L1L
tp1192
(L1L
tp1193
tp1194
Rp1195
tp1196
Rp1197
(I01
I00
Ntp1198
bag5
(g6
g7
(g8
((lp1199
F3.3436527252197266
atp1200
Rp1201
I0
(L1L
tp1202
(L1L
tp1203
tp1204
Rp1205
tp1206
Rp1207
(I01
I00
Ntp1208
bag5
(g6
g7
(g8
((lp1209
F3.0591461658477783
atp1210
Rp1211
I0
(L1L
tp1212
(L1L
tp1213
tp1214
Rp1215
tp1216
Rp1217
(I01
I00
Ntp1218
bag5
(g6
g7
(g8
((lp1219
F3.605767011642456
atp1220
Rp1221
I0
(L1L
tp1222
(L1L
tp1223
tp1224
Rp1225
tp1226
Rp1227
(I01
I00
Ntp1228
bag5
(g6
g7
(g8
((lp1229
F3.4948034286499023
atp1230
Rp1231
I0
(L1L
tp1232
(L1L
tp1233
tp1234
Rp1235
tp1236
Rp1237
(I01
I00
Ntp1238
bag5
(g6
g7
(g8
((lp1239
F2.794339656829834
atp1240
Rp1241
I0
(L1L
tp1242
(L1L
tp1243
tp1244
Rp1245
tp1246
Rp1247
(I01
I00
Ntp1248
bag5
(g6
g7
(g8
((lp1249
F2.6875150203704834
atp1250
Rp1251
I0
(L1L
tp1252
(L1L
tp1253
tp1254
Rp1255
tp1256
Rp1257
(I01
I00
Ntp1258
bag5
(g6
g7
(g8
((lp1259
F3.2988836765289307
atp1260
Rp1261
I0
(L1L
tp1262
(L1L
tp1263
tp1264
Rp1265
tp1266
Rp1267
(I01
I00
Ntp1268
bag5
(g6
g7
(g8
((lp1269
F2.024643659591675
atp1270
Rp1271
I0
(L1L
tp1272
(L1L
tp1273
tp1274
Rp1275
tp1276
Rp1277
(I01
I00
Ntp1278
bag5
(g6
g7
(g8
((lp1279
F2.015554428100586
atp1280
Rp1281
I0
(L1L
tp1282
(L1L
tp1283
tp1284
Rp1285
tp1286
Rp1287
(I01
I00
Ntp1288
bag5
(g6
g7
(g8
((lp1289
F1.855485439300537
atp1290
Rp1291
I0
(L1L
tp1292
(L1L
tp1293
tp1294
Rp1295
tp1296
Rp1297
(I01
I00
Ntp1298
bag5
(g6
g7
(g8
((lp1299
F2.667457342147827
atp1300
Rp1301
I0
(L1L
tp1302
(L1L
tp1303
tp1304
Rp1305
tp1306
Rp1307
(I01
I00
Ntp1308
bag5
(g6
g7
(g8
((lp1309
F1.9043906927108765
atp1310
Rp1311
I0
(L1L
tp1312
(L1L
tp1313
tp1314
Rp1315
tp1316
Rp1317
(I01
I00
Ntp1318
bag5
(g6
g7
(g8
((lp1319
F2.1038596630096436
atp1320
Rp1321
I0
(L1L
tp1322
(L1L
tp1323
tp1324
Rp1325
tp1326
Rp1327
(I01
I00
Ntp1328
bag5
(g6
g7
(g8
((lp1329
F2.838005304336548
atp1330
Rp1331
I0
(L1L
tp1332
(L1L
tp1333
tp1334
Rp1335
tp1336
Rp1337
(I01
I00
Ntp1338
bag5
(g6
g7
(g8
((lp1339
F2.448655605316162
atp1340
Rp1341
I0
(L1L
tp1342
(L1L
tp1343
tp1344
Rp1345
tp1346
Rp1347
(I01
I00
Ntp1348
bag5
(g6
g7
(g8
((lp1349
F2.37673020362854
atp1350
Rp1351
I0
(L1L
tp1352
(L1L
tp1353
tp1354
Rp1355
tp1356
Rp1357
(I01
I00
Ntp1358
bag5
(g6
g7
(g8
((lp1359
F5.711016654968262
atp1360
Rp1361
I0
(L1L
tp1362
(L1L
tp1363
tp1364
Rp1365
tp1366
Rp1367
(I01
I00
Ntp1368
bag5
(g6
g7
(g8
((lp1369
F5.385965347290039
atp1370
Rp1371
I0
(L1L
tp1372
(L1L
tp1373
tp1374
Rp1375
tp1376
Rp1377
(I01
I00
Ntp1378
bag5
(g6
g7
(g8
((lp1379
F4.798548221588135
atp1380
Rp1381
I0
(L1L
tp1382
(L1L
tp1383
tp1384
Rp1385
tp1386
Rp1387
(I01
I00
Ntp1388
bag5
(g6
g7
(g8
((lp1389
F2.3931753635406494
atp1390
Rp1391
I0
(L1L
tp1392
(L1L
tp1393
tp1394
Rp1395
tp1396
Rp1397
(I01
I00
Ntp1398
bag5
(g6
g7
(g8
((lp1399
F2.511242628097534
atp1400
Rp1401
I0
(L1L
tp1402
(L1L
tp1403
tp1404
Rp1405
tp1406
Rp1407
(I01
I00
Ntp1408
bag5
(g6
g7
(g8
((lp1409
F2.7865371704101562
atp1410
Rp1411
I0
(L1L
tp1412
(L1L
tp1413
tp1414
Rp1415
tp1416
Rp1417
(I01
I00
Ntp1418
bag5
(g6
g7
(g8
((lp1419
F2.1581461429595947
atp1420
Rp1421
I0
(L1L
tp1422
(L1L
tp1423
tp1424
Rp1425
tp1426
Rp1427
(I01
I00
Ntp1428
bag5
(g6
g7
(g8
((lp1429
F2.2328596115112305
atp1430
Rp1431
I0
(L1L
tp1432
(L1L
tp1433
tp1434
Rp1435
tp1436
Rp1437
(I01
I00
Ntp1438
bag5
(g6
g7
(g8
((lp1439
F3.100419282913208
atp1440
Rp1441
I0
(L1L
tp1442
(L1L
tp1443
tp1444
Rp1445
tp1446
Rp1447
(I01
I00
Ntp1448
bag5
(g6
g7
(g8
((lp1449
F2.45172119140625
atp1450
Rp1451
I0
(L1L
tp1452
(L1L
tp1453
tp1454
Rp1455
tp1456
Rp1457
(I01
I00
Ntp1458
bag5
(g6
g7
(g8
((lp1459
F4.722026824951172
atp1460
Rp1461
I0
(L1L
tp1462
(L1L
tp1463
tp1464
Rp1465
tp1466
Rp1467
(I01
I00
Ntp1468
bag5
(g6
g7
(g8
((lp1469
F2.884965419769287
atp1470
Rp1471
I0
(L1L
tp1472
(L1L
tp1473
tp1474
Rp1475
tp1476
Rp1477
(I01
I00
Ntp1478
bag5
(g6
g7
(g8
((lp1479
F1.7685446739196777
atp1480
Rp1481
I0
(L1L
tp1482
(L1L
tp1483
tp1484
Rp1485
tp1486
Rp1487
(I01
I00
Ntp1488
bag5
(g6
g7
(g8
((lp1489
F1.8318722248077393
atp1490
Rp1491
I0
(L1L
tp1492
(L1L
tp1493
tp1494
Rp1495
tp1496
Rp1497
(I01
I00
Ntp1498
bag5
(g6
g7
(g8
((lp1499
F3.104614019393921
atp1500
Rp1501
I0
(L1L
tp1502
(L1L
tp1503
tp1504
Rp1505
tp1506
Rp1507
(I01
I00
Ntp1508
bag5
(g6
g7
(g8
((lp1509
F2.6681430339813232
atp1510
Rp1511
I0
(L1L
tp1512
(L1L
tp1513
tp1514
Rp1515
tp1516
Rp1517
(I01
I00
Ntp1518
bag5
(g6
g7
(g8
((lp1519
F2.9785234928131104
atp1520
Rp1521
I0
(L1L
tp1522
(L1L
tp1523
tp1524
Rp1525
tp1526
Rp1527
(I01
I00
Ntp1528
bag5
(g6
g7
(g8
((lp1529
F5.547586441040039
atp1530
Rp1531
I0
(L1L
tp1532
(L1L
tp1533
tp1534
Rp1535
tp1536
Rp1537
(I01
I00
Ntp1538
bag5
(g6
g7
(g8
((lp1539
F4.496179580688477
atp1540
Rp1541
I0
(L1L
tp1542
(L1L
tp1543
tp1544
Rp1545
tp1546
Rp1547
(I01
I00
Ntp1548
bag5
(g6
g7
(g8
((lp1549
F3.0262136459350586
atp1550
Rp1551
I0
(L1L
tp1552
(L1L
tp1553
tp1554
Rp1555
tp1556
Rp1557
(I01
I00
Ntp1558
bag5
(g6
g7
(g8
((lp1559
F2.496788740158081
atp1560
Rp1561
I0
(L1L
tp1562
(L1L
tp1563
tp1564
Rp1565
tp1566
Rp1567
(I01
I00
Ntp1568
bag5
(g6
g7
(g8
((lp1569
F5.8702473640441895
atp1570
Rp1571
I0
(L1L
tp1572
(L1L
tp1573
tp1574
Rp1575
tp1576
Rp1577
(I01
I00
Ntp1578
bag5
(g6
g7
(g8
((lp1579
F4.189637184143066
atp1580
Rp1581
I0
(L1L
tp1582
(L1L
tp1583
tp1584
Rp1585
tp1586
Rp1587
(I01
I00
Ntp1588
bag5
(g6
g7
(g8
((lp1589
F3.6192734241485596
atp1590
Rp1591
I0
(L1L
tp1592
(L1L
tp1593
tp1594
Rp1595
tp1596
Rp1597
(I01
I00
Ntp1598
bag5
(g6
g7
(g8
((lp1599
F4.884822845458984
atp1600
Rp1601
I0
(L1L
tp1602
(L1L
tp1603
tp1604
Rp1605
tp1606
Rp1607
(I01
I00
Ntp1608
bag5
(g6
g7
(g8
((lp1609
F2.000229597091675
atp1610
Rp1611
I0
(L1L
tp1612
(L1L
tp1613
tp1614
Rp1615
tp1616
Rp1617
(I01
I00
Ntp1618
bag5
(g6
g7
(g8
((lp1619
F2.955313205718994
atp1620
Rp1621
I0
(L1L
tp1622
(L1L
tp1623
tp1624
Rp1625
tp1626
Rp1627
(I01
I00
Ntp1628
bag5
(g6
g7
(g8
((lp1629
F4.516475677490234
atp1630
Rp1631
I0
(L1L
tp1632
(L1L
tp1633
tp1634
Rp1635
tp1636
Rp1637
(I01
I00
Ntp1638
bag5
(g6
g7
(g8
((lp1639
F8.504532814025879
atp1640
Rp1641
I0
(L1L
tp1642
(L1L
tp1643
tp1644
Rp1645
tp1646
Rp1647
(I01
I00
Ntp1648
bag5
(g6
g7
(g8
((lp1649
F5.080280780792236
atp1650
Rp1651
I0
(L1L
tp1652
(L1L
tp1653
tp1654
Rp1655
tp1656
Rp1657
(I01
I00
Ntp1658
bag5
(g6
g7
(g8
((lp1659
F3.998328447341919
atp1660
Rp1661
I0
(L1L
tp1662
(L1L
tp1663
tp1664
Rp1665
tp1666
Rp1667
(I01
I00
Ntp1668
bag5
(g6
g7
(g8
((lp1669
F3.6965596675872803
atp1670
Rp1671
I0
(L1L
tp1672
(L1L
tp1673
tp1674
Rp1675
tp1676
Rp1677
(I01
I00
Ntp1678
bag5
(g6
g7
(g8
((lp1679
F3.8950536251068115
atp1680
Rp1681
I0
(L1L
tp1682
(L1L
tp1683
tp1684
Rp1685
tp1686
Rp1687
(I01
I00
Ntp1688
bag5
(g6
g7
(g8
((lp1689
F3.0100467205047607
atp1690
Rp1691
I0
(L1L
tp1692
(L1L
tp1693
tp1694
Rp1695
tp1696
Rp1697
(I01
I00
Ntp1698
bag5
(g6
g7
(g8
((lp1699
F2.7609663009643555
atp1700
Rp1701
I0
(L1L
tp1702
(L1L
tp1703
tp1704
Rp1705
tp1706
Rp1707
(I01
I00
Ntp1708
bag5
(g6
g7
(g8
((lp1709
F2.4701366424560547
atp1710
Rp1711
I0
(L1L
tp1712
(L1L
tp1713
tp1714
Rp1715
tp1716
Rp1717
(I01
I00
Ntp1718
bag5
(g6
g7
(g8
((lp1719
F3.889362096786499
atp1720
Rp1721
I0
(L1L
tp1722
(L1L
tp1723
tp1724
Rp1725
tp1726
Rp1727
(I01
I00
Ntp1728
bag5
(g6
g7
(g8
((lp1729
F3.310967445373535
atp1730
Rp1731
I0
(L1L
tp1732
(L1L
tp1733
tp1734
Rp1735
tp1736
Rp1737
(I01
I00
Ntp1738
bag5
(g6
g7
(g8
((lp1739
F3.348780632019043
atp1740
Rp1741
I0
(L1L
tp1742
(L1L
tp1743
tp1744
Rp1745
tp1746
Rp1747
(I01
I00
Ntp1748
bag5
(g6
g7
(g8
((lp1749
F2.3038620948791504
atp1750
Rp1751
I0
(L1L
tp1752
(L1L
tp1753
tp1754
Rp1755
tp1756
Rp1757
(I01
I00
Ntp1758
bag5
(g6
g7
(g8
((lp1759
F1.8781211376190186
atp1760
Rp1761
I0
(L1L
tp1762
(L1L
tp1763
tp1764
Rp1765
tp1766
Rp1767
(I01
I00
Ntp1768
bag5
(g6
g7
(g8
((lp1769
F1.8456006050109863
atp1770
Rp1771
I0
(L1L
tp1772
(L1L
tp1773
tp1774
Rp1775
tp1776
Rp1777
(I01
I00
Ntp1778
bag5
(g6
g7
(g8
((lp1779
F3.8929941654205322
atp1780
Rp1781
I0
(L1L
tp1782
(L1L
tp1783
tp1784
Rp1785
tp1786
Rp1787
(I01
I00
Ntp1788
bag5
(g6
g7
(g8
((lp1789
F3.8721883296966553
atp1790
Rp1791
I0
(L1L
tp1792
(L1L
tp1793
tp1794
Rp1795
tp1796
Rp1797
(I01
I00
Ntp1798
bag5
(g6
g7
(g8
((lp1799
F3.7892656326293945
atp1800
Rp1801
I0
(L1L
tp1802
(L1L
tp1803
tp1804
Rp1805
tp1806
Rp1807
(I01
I00
Ntp1808
bag5
(g6
g7
(g8
((lp1809
F1.9997622966766357
atp1810
Rp1811
I0
(L1L
tp1812
(L1L
tp1813
tp1814
Rp1815
tp1816
Rp1817
(I01
I00
Ntp1818
bag5
(g6
g7
(g8
((lp1819
F1.9917200803756714
atp1820
Rp1821
I0
(L1L
tp1822
(L1L
tp1823
tp1824
Rp1825
tp1826
Rp1827
(I01
I00
Ntp1828
bag5
(g6
g7
(g8
((lp1829
F2.061293601989746
atp1830
Rp1831
I0
(L1L
tp1832
(L1L
tp1833
tp1834
Rp1835
tp1836
Rp1837
(I01
I00
Ntp1838
bag5
(g6
g7
(g8
((lp1839
F4.4008097648620605
atp1840
Rp1841
I0
(L1L
tp1842
(L1L
tp1843
tp1844
Rp1845
tp1846
Rp1847
(I01
I00
Ntp1848
bag5
(g6
g7
(g8
((lp1849
F4.320438861846924
atp1850
Rp1851
I0
(L1L
tp1852
(L1L
tp1853
tp1854
Rp1855
tp1856
Rp1857
(I01
I00
Ntp1858
bag5
(g6
g7
(g8
((lp1859
F4.272317886352539
atp1860
Rp1861
I0
(L1L
tp1862
(L1L
tp1863
tp1864
Rp1865
tp1866
Rp1867
(I01
I00
Ntp1868
bag5
(g6
g7
(g8
((lp1869
F3.344087600708008
atp1870
Rp1871
I0
(L1L
tp1872
(L1L
tp1873
tp1874
Rp1875
tp1876
Rp1877
(I01
I00
Ntp1878
bag5
(g6
g7
(g8
((lp1879
F3.3707549571990967
atp1880
Rp1881
I0
(L1L
tp1882
(L1L
tp1883
tp1884
Rp1885
tp1886
Rp1887
(I01
I00
Ntp1888
bag5
(g6
g7
(g8
((lp1889
F3.6049129962921143
atp1890
Rp1891
I0
(L1L
tp1892
(L1L
tp1893
tp1894
Rp1895
tp1896
Rp1897
(I01
I00
Ntp1898
bag5
(g6
g7
(g8
((lp1899
F2.8019351959228516
atp1900
Rp1901
I0
(L1L
tp1902
(L1L
tp1903
tp1904
Rp1905
tp1906
Rp1907
(I01
I00
Ntp1908
bag5
(g6
g7
(g8
((lp1909
F2.884840726852417
atp1910
Rp1911
I0
(L1L
tp1912
(L1L
tp1913
tp1914
Rp1915
tp1916
Rp1917
(I01
I00
Ntp1918
bag5
(g6
g7
(g8
((lp1919
F2.582810163497925
atp1920
Rp1921
I0
(L1L
tp1922
(L1L
tp1923
tp1924
Rp1925
tp1926
Rp1927
(I01
I00
Ntp1928
bag5
(g6
g7
(g8
((lp1929
F2.388240337371826
atp1930
Rp1931
I0
(L1L
tp1932
(L1L
tp1933
tp1934
Rp1935
tp1936
Rp1937
(I01
I00
Ntp1938
bag5
(g6
g7
(g8
((lp1939
F2.4461827278137207
atp1940
Rp1941
I0
(L1L
tp1942
(L1L
tp1943
tp1944
Rp1945
tp1946
Rp1947
(I01
I00
Ntp1948
bag5
(g6
g7
(g8
((lp1949
F2.4692909717559814
atp1950
Rp1951
I0
(L1L
tp1952
(L1L
tp1953
tp1954
Rp1955
tp1956
Rp1957
(I01
I00
Ntp1958
bag5
(g6
g7
(g8
((lp1959
F3.4540634155273438
atp1960
Rp1961
I0
(L1L
tp1962
(L1L
tp1963
tp1964
Rp1965
tp1966
Rp1967
(I01
I00
Ntp1968
bag5
(g6
g7
(g8
((lp1969
F3.102595329284668
atp1970
Rp1971
I0
(L1L
tp1972
(L1L
tp1973
tp1974
Rp1975
tp1976
Rp1977
(I01
I00
Ntp1978
bag5
(g6
g7
(g8
((lp1979
F3.37846040725708
atp1980
Rp1981
I0
(L1L
tp1982
(L1L
tp1983
tp1984
Rp1985
tp1986
Rp1987
(I01
I00
Ntp1988
bag5
(g6
g7
(g8
((lp1989
F3.655930280685425
atp1990
Rp1991
I0
(L1L
tp1992
(L1L
tp1993
tp1994
Rp1995
tp1996
Rp1997
(I01
I00
Ntp1998
bag5
(g6
g7
(g8
((lp1999
F3.5551939010620117
atp2000
Rp2001
I0
(L1L
tp2002
(L1L
tp2003
tp2004
Rp2005
tp2006
Rp2007
(I01
I00
Ntp2008
bag5
(g6
g7
(g8
((lp2009
F3.2493157386779785
atp2010
Rp2011
I0
(L1L
tp2012
(L1L
tp2013
tp2014
Rp2015
tp2016
Rp2017
(I01
I00
Ntp2018
bag5
(g6
g7
(g8
((lp2019
F2.2852587699890137
atp2020
Rp2021
I0
(L1L
tp2022
(L1L
tp2023
tp2024
Rp2025
tp2026
Rp2027
(I01
I00
Ntp2028
bag5
(g6
g7
(g8
((lp2029
F2.3498494625091553
atp2030
Rp2031
I0
(L1L
tp2032
(L1L
tp2033
tp2034
Rp2035
tp2036
Rp2037
(I01
I00
Ntp2038
bag5
(g6
g7
(g8
((lp2039
F2.1873815059661865
atp2040
Rp2041
I0
(L1L
tp2042
(L1L
tp2043
tp2044
Rp2045
tp2046
Rp2047
(I01
I00
Ntp2048
bag5
(g6
g7
(g8
((lp2049
F3.791259527206421
atp2050
Rp2051
I0
(L1L
tp2052
(L1L
tp2053
tp2054
Rp2055
tp2056
Rp2057
(I01
I00
Ntp2058
bag5
(g6
g7
(g8
((lp2059
F3.610696792602539
atp2060
Rp2061
I0
(L1L
tp2062
(L1L
tp2063
tp2064
Rp2065
tp2066
Rp2067
(I01
I00
Ntp2068
bag5
(g6
g7
(g8
((lp2069
F3.899517297744751
atp2070
Rp2071
I0
(L1L
tp2072
(L1L
tp2073
tp2074
Rp2075
tp2076
Rp2077
(I01
I00
Ntp2078
bag5
(g6
g7
(g8
((lp2079
F3.794926404953003
atp2080
Rp2081
I0
(L1L
tp2082
(L1L
tp2083
tp2084
Rp2085
tp2086
Rp2087
(I01
I00
Ntp2088
bag5
(g6
g7
(g8
((lp2089
F3.4902701377868652
atp2090
Rp2091
I0
(L1L
tp2092
(L1L
tp2093
tp2094
Rp2095
tp2096
Rp2097
(I01
I00
Ntp2098
bag5
(g6
g7
(g8
((lp2099
F3.8087096214294434
atp2100
Rp2101
I0
(L1L
tp2102
(L1L
tp2103
tp2104
Rp2105
tp2106
Rp2107
(I01
I00
Ntp2108
bag5
(g6
g7
(g8
((lp2109
F2.40238356590271
atp2110
Rp2111
I0
(L1L
tp2112
(L1L
tp2113
tp2114
Rp2115
tp2116
Rp2117
(I01
I00
Ntp2118
bag5
(g6
g7
(g8
((lp2119
F3.057908296585083
atp2120
Rp2121
I0
(L1L
tp2122
(L1L
tp2123
tp2124
Rp2125
tp2126
Rp2127
(I01
I00
Ntp2128
bag5
(g6
g7
(g8
((lp2129
F2.6850357055664062
atp2130
Rp2131
I0
(L1L
tp2132
(L1L
tp2133
tp2134
Rp2135
tp2136
Rp2137
(I01
I00
Ntp2138
bag5
(g6
g7
(g8
((lp2139
F3.4978694915771484
atp2140
Rp2141
I0
(L1L
tp2142
(L1L
tp2143
tp2144
Rp2145
tp2146
Rp2147
(I01
I00
Ntp2148
bag5
(g6
g7
(g8
((lp2149
F4.063680171966553
atp2150
Rp2151
I0
(L1L
tp2152
(L1L
tp2153
tp2154
Rp2155
tp2156
Rp2157
(I01
I00
Ntp2158
bag5
(g6
g7
(g8
((lp2159
F3.6959316730499268
atp2160
Rp2161
I0
(L1L
tp2162
(L1L
tp2163
tp2164
Rp2165
tp2166
Rp2167
(I01
I00
Ntp2168
bag5
(g6
g7
(g8
((lp2169
F2.591823101043701
atp2170
Rp2171
I0
(L1L
tp2172
(L1L
tp2173
tp2174
Rp2175
tp2176
Rp2177
(I01
I00
Ntp2178
bag5
(g6
g7
(g8
((lp2179
F3.326003074645996
atp2180
Rp2181
I0
(L1L
tp2182
(L1L
tp2183
tp2184
Rp2185
tp2186
Rp2187
(I01
I00
Ntp2188
bag5
(g6
g7
(g8
((lp2189
F3.2873480319976807
atp2190
Rp2191
I0
(L1L
tp2192
(L1L
tp2193
tp2194
Rp2195
tp2196
Rp2197
(I01
I00
Ntp2198
bag5
(g6
g7
(g8
((lp2199
F2.9744086265563965
atp2200
Rp2201
I0
(L1L
tp2202
(L1L
tp2203
tp2204
Rp2205
tp2206
Rp2207
(I01
I00
Ntp2208
bag5
(g6
g7
(g8
((lp2209
F3.788485527038574
atp2210
Rp2211
I0
(L1L
tp2212
(L1L
tp2213
tp2214
Rp2215
tp2216
Rp2217
(I01
I00
Ntp2218
bag5
(g6
g7
(g8
((lp2219
F4.474245071411133
atp2220
Rp2221
I0
(L1L
tp2222
(L1L
tp2223
tp2224
Rp2225
tp2226
Rp2227
(I01
I00
Ntp2228
bag5
(g6
g7
(g8
((lp2229
F4.1476054191589355
atp2230
Rp2231
I0
(L1L
tp2232
(L1L
tp2233
tp2234
Rp2235
tp2236
Rp2237
(I01
I00
Ntp2238
bag5
(g6
g7
(g8
((lp2239
F3.8053536415100098
atp2240
Rp2241
I0
(L1L
tp2242
(L1L
tp2243
tp2244
Rp2245
tp2246
Rp2247
(I01
I00
Ntp2248
bag5
(g6
g7
(g8
((lp2249
F4.482604503631592
atp2250
Rp2251
I0
(L1L
tp2252
(L1L
tp2253
tp2254
Rp2255
tp2256
Rp2257
(I01
I00
Ntp2258
bag5
(g6
g7
(g8
((lp2259
F4.420106410980225
atp2260
Rp2261
I0
(L1L
tp2262
(L1L
tp2263
tp2264
Rp2265
tp2266
Rp2267
(I01
I00
Ntp2268
bag5
(g6
g7
(g8
((lp2269
F2.759223699569702
atp2270
Rp2271
I0
(L1L
tp2272
(L1L
tp2273
tp2274
Rp2275
tp2276
Rp2277
(I01
I00
Ntp2278
bag5
(g6
g7
(g8
((lp2279
F2.5175604820251465
atp2280
Rp2281
I0
(L1L
tp2282
(L1L
tp2283
tp2284
Rp2285
tp2286
Rp2287
(I01
I00
Ntp2288
bag5
(g6
g7
(g8
((lp2289
F4.079741954803467
atp2290
Rp2291
I0
(L1L
tp2292
(L1L
tp2293
tp2294
Rp2295
tp2296
Rp2297
(I01
I00
Ntp2298
bag5
(g6
g7
(g8
((lp2299
F4.344877243041992
atp2300
Rp2301
I0
(L1L
tp2302
(L1L
tp2303
tp2304
Rp2305
tp2306
Rp2307
(I01
I00
Ntp2308
bag5
(g6
g7
(g8
((lp2309
F3.7008190155029297
atp2310
Rp2311
I0
(L1L
tp2312
(L1L
tp2313
tp2314
Rp2315
tp2316
Rp2317
(I01
I00
Ntp2318
bag5
(g6
g7
(g8
((lp2319
F2.34030818939209
atp2320
Rp2321
I0
(L1L
tp2322
(L1L
tp2323
tp2324
Rp2325
tp2326
Rp2327
(I01
I00
Ntp2328
bag5
(g6
g7
(g8
((lp2329
F2.4706966876983643
atp2330
Rp2331
I0
(L1L
tp2332
(L1L
tp2333
tp2334
Rp2335
tp2336
Rp2337
(I01
I00
Ntp2338
bag5
(g6
g7
(g8
((lp2339
F2.522094488143921
atp2340
Rp2341
I0
(L1L
tp2342
(L1L
tp2343
tp2344
Rp2345
tp2346
Rp2347
(I01
I00
Ntp2348
bag5
(g6
g7
(g8
((lp2349
F1.9186128377914429
atp2350
Rp2351
I0
(L1L
tp2352
(L1L
tp2353
tp2354
Rp2355
tp2356
Rp2357
(I01
I00
Ntp2358
bag5
(g6
g7
(g8
((lp2359
F2.5528621673583984
atp2360
Rp2361
I0
(L1L
tp2362
(L1L
tp2363
tp2364
Rp2365
tp2366
Rp2367
(I01
I00
Ntp2368
bag5
(g6
g7
(g8
((lp2369
F2.0707225799560547
atp2370
Rp2371
I0
(L1L
tp2372
(L1L
tp2373
tp2374
Rp2375
tp2376
Rp2377
(I01
I00
Ntp2378
bag5
(g6
g7
(g8
((lp2379
F2.6776556968688965
atp2380
Rp2381
I0
(L1L
tp2382
(L1L
tp2383
tp2384
Rp2385
tp2386
Rp2387
(I01
I00
Ntp2388
bag5
(g6
g7
(g8
((lp2389
F2.7546114921569824
atp2390
Rp2391
I0
(L1L
tp2392
(L1L
tp2393
tp2394
Rp2395
tp2396
Rp2397
(I01
I00
Ntp2398
bag5
(g6
g7
(g8
((lp2399
F2.5605218410491943
atp2400
Rp2401
I0
(L1L
tp2402
(L1L
tp2403
tp2404
Rp2405
tp2406
Rp2407
(I01
I00
Ntp2408
bag5
(g6
g7
(g8
((lp2409
F4.101763725280762
atp2410
Rp2411
I0
(L1L
tp2412
(L1L
tp2413
tp2414
Rp2415
tp2416
Rp2417
(I01
I00
Ntp2418
bag5
(g6
g7
(g8
((lp2419
F4.249639511108398
atp2420
Rp2421
I0
(L1L
tp2422
(L1L
tp2423
tp2424
Rp2425
tp2426
Rp2427
(I01
I00
Ntp2428
bag5
(g6
g7
(g8
((lp2429
F4.262340545654297
atp2430
Rp2431
I0
(L1L
tp2432
(L1L
tp2433
tp2434
Rp2435
tp2436
Rp2437
(I01
I00
Ntp2438
bag5
(g6
g7
(g8
((lp2439
F2.816387414932251
atp2440
Rp2441
I0
(L1L
tp2442
(L1L
tp2443
tp2444
Rp2445
tp2446
Rp2447
(I01
I00
Ntp2448
bag5
(g6
g7
(g8
((lp2449
F2.4663913249969482
atp2450
Rp2451
I0
(L1L
tp2452
(L1L
tp2453
tp2454
Rp2455
tp2456
Rp2457
(I01
I00
Ntp2458
bag5
(g6
g7
(g8
((lp2459
F2.7868335247039795
atp2460
Rp2461
I0
(L1L
tp2462
(L1L
tp2463
tp2464
Rp2465
tp2466
Rp2467
(I01
I00
Ntp2468
bag5
(g6
g7
(g8
((lp2469
F3.230905055999756
atp2470
Rp2471
I0
(L1L
tp2472
(L1L
tp2473
tp2474
Rp2475
tp2476
Rp2477
(I01
I00
Ntp2478
bag5
(g6
g7
(g8
((lp2479
F3.450263738632202
atp2480
Rp2481
I0
(L1L
tp2482
(L1L
tp2483
tp2484
Rp2485
tp2486
Rp2487
(I01
I00
Ntp2488
bag5
(g6
g7
(g8
((lp2489
F3.2246694564819336
atp2490
Rp2491
I0
(L1L
tp2492
(L1L
tp2493
tp2494
Rp2495
tp2496
Rp2497
(I01
I00
Ntp2498
bag5
(g6
g7
(g8
((lp2499
F3.33951997756958
atp2500
Rp2501
I0
(L1L
tp2502
(L1L
tp2503
tp2504
Rp2505
tp2506
Rp2507
(I01
I00
Ntp2508
bag5
(g6
g7
(g8
((lp2509
F3.351499080657959
atp2510
Rp2511
I0
(L1L
tp2512
(L1L
tp2513
tp2514
Rp2515
tp2516
Rp2517
(I01
I00
Ntp2518
bag5
(g6
g7
(g8
((lp2519
F3.418421983718872
atp2520
Rp2521
I0
(L1L
tp2522
(L1L
tp2523
tp2524
Rp2525
tp2526
Rp2527
(I01
I00
Ntp2528
bag5
(g6
g7
(g8
((lp2529
F2.9473910331726074
atp2530
Rp2531
I0
(L1L
tp2532
(L1L
tp2533
tp2534
Rp2535
tp2536
Rp2537
(I01
I00
Ntp2538
bag5
(g6
g7
(g8
((lp2539
F2.8205623626708984
atp2540
Rp2541
I0
(L1L
tp2542
(L1L
tp2543
tp2544
Rp2545
tp2546
Rp2547
(I01
I00
Ntp2548
bag5
(g6
g7
(g8
((lp2549
F2.8940324783325195
atp2550
Rp2551
I0
(L1L
tp2552
(L1L
tp2553
tp2554
Rp2555
tp2556
Rp2557
(I01
I00
Ntp2558
bag5
(g6
g7
(g8
((lp2559
F1.8105143308639526
atp2560
Rp2561
I0
(L1L
tp2562
(L1L
tp2563
tp2564
Rp2565
tp2566
Rp2567
(I01
I00
Ntp2568
bag5
(g6
g7
(g8
((lp2569
F1.9220844507217407
atp2570
Rp2571
I0
(L1L
tp2572
(L1L
tp2573
tp2574
Rp2575
tp2576
Rp2577
(I01
I00
Ntp2578
bag5
(g6
g7
(g8
((lp2579
F1.821800708770752
atp2580
Rp2581
I0
(L1L
tp2582
(L1L
tp2583
tp2584
Rp2585
tp2586
Rp2587
(I01
I00
Ntp2588
bag5
(g6
g7
(g8
((lp2589
F2.6249125003814697
atp2590
Rp2591
I0
(L1L
tp2592
(L1L
tp2593
tp2594
Rp2595
tp2596
Rp2597
(I01
I00
Ntp2598
bag5
(g6
g7
(g8
((lp2599
F2.591947317123413
atp2600
Rp2601
I0
(L1L
tp2602
(L1L
tp2603
tp2604
Rp2605
tp2606
Rp2607
(I01
I00
Ntp2608
bag5
(g6
g7
(g8
((lp2609
F2.506969451904297
atp2610
Rp2611
I0
(L1L
tp2612
(L1L
tp2613
tp2614
Rp2615
tp2616
Rp2617
(I01
I00
Ntp2618
bag5
(g6
g7
(g8
((lp2619
F2.3208723068237305
atp2620
Rp2621
I0
(L1L
tp2622
(L1L
tp2623
tp2624
Rp2625
tp2626
Rp2627
(I01
I00
Ntp2628
bag5
(g6
g7
(g8
((lp2629
F2.3168365955352783
atp2630
Rp2631
I0
(L1L
tp2632
(L1L
tp2633
tp2634
Rp2635
tp2636
Rp2637
(I01
I00
Ntp2638
bag5
(g6
g7
(g8
((lp2639
F2.3556606769561768
atp2640
Rp2641
I0
(L1L
tp2642
(L1L
tp2643
tp2644
Rp2645
tp2646
Rp2647
(I01
I00
Ntp2648
bag5
(g6
g7
(g8
((lp2649
F2.8613648414611816
atp2650
Rp2651
I0
(L1L
tp2652
(L1L
tp2653
tp2654
Rp2655
tp2656
Rp2657
(I01
I00
Ntp2658
bag5
(g6
g7
(g8
((lp2659
F2.925323724746704
atp2660
Rp2661
I0
(L1L
tp2662
(L1L
tp2663
tp2664
Rp2665
tp2666
Rp2667
(I01
I00
Ntp2668
bag5
(g6
g7
(g8
((lp2669
F2.96337890625
atp2670
Rp2671
I0
(L1L
tp2672
(L1L
tp2673
tp2674
Rp2675
tp2676
Rp2677
(I01
I00
Ntp2678
bag5
(g6
g7
(g8
((lp2679
F2.3132457733154297
atp2680
Rp2681
I0
(L1L
tp2682
(L1L
tp2683
tp2684
Rp2685
tp2686
Rp2687
(I01
I00
Ntp2688
bag5
(g6
g7
(g8
((lp2689
F2.3493845462799072
atp2690
Rp2691
I0
(L1L
tp2692
(L1L
tp2693
tp2694
Rp2695
tp2696
Rp2697
(I01
I00
Ntp2698
bag5
(g6
g7
(g8
((lp2699
F2.32725191116333
atp2700
Rp2701
I0
(L1L
tp2702
(L1L
tp2703
tp2704
Rp2705
tp2706
Rp2707
(I01
I00
Ntp2708
bag5
(g6
g7
(g8
((lp2709
F1.9857276678085327
atp2710
Rp2711
I0
(L1L
tp2712
(L1L
tp2713
tp2714
Rp2715
tp2716
Rp2717
(I01
I00
Ntp2718
bag5
(g6
g7
(g8
((lp2719
F1.9620163440704346
atp2720
Rp2721
I0
(L1L
tp2722
(L1L
tp2723
tp2724
Rp2725
tp2726
Rp2727
(I01
I00
Ntp2728
bag5
(g6
g7
(g8
((lp2729
F1.8967517614364624
atp2730
Rp2731
I0
(L1L
tp2732
(L1L
tp2733
tp2734
Rp2735
tp2736
Rp2737
(I01
I00
Ntp2738
bag5
(g6
g7
(g8
((lp2739
F2.1678590774536133
atp2740
Rp2741
I0
(L1L
tp2742
(L1L
tp2743
tp2744
Rp2745
tp2746
Rp2747
(I01
I00
Ntp2748
bag5
(g6
g7
(g8
((lp2749
F2.3244874477386475
atp2750
Rp2751
I0
(L1L
tp2752
(L1L
tp2753
tp2754
Rp2755
tp2756
Rp2757
(I01
I00
Ntp2758
bag5
(g6
g7
(g8
((lp2759
F2.2842392921447754
atp2760
Rp2761
I0
(L1L
tp2762
(L1L
tp2763
tp2764
Rp2765
tp2766
Rp2767
(I01
I00
Ntp2768
bag5
(g6
g7
(g8
((lp2769
F1.9024654626846313
atp2770
Rp2771
I0
(L1L
tp2772
(L1L
tp2773
tp2774
Rp2775
tp2776
Rp2777
(I01
I00
Ntp2778
bag5
(g6
g7
(g8
((lp2779
F1.753077745437622
atp2780
Rp2781
I0
(L1L
tp2782
(L1L
tp2783
tp2784
Rp2785
tp2786
Rp2787
(I01
I00
Ntp2788
bag5
(g6
g7
(g8
((lp2789
F1.7964634895324707
atp2790
Rp2791
I0
(L1L
tp2792
(L1L
tp2793
tp2794
Rp2795
tp2796
Rp2797
(I01
I00
Ntp2798
bag5
(g6
g7
(g8
((lp2799
F2.3673882484436035
atp2800
Rp2801
I0
(L1L
tp2802
(L1L
tp2803
tp2804
Rp2805
tp2806
Rp2807
(I01
I00
Ntp2808
bag5
(g6
g7
(g8
((lp2809
F2.3966047763824463
atp2810
Rp2811
I0
(L1L
tp2812
(L1L
tp2813
tp2814
Rp2815
tp2816
Rp2817
(I01
I00
Ntp2818
bag5
(g6
g7
(g8
((lp2819
F2.3098130226135254
atp2820
Rp2821
I0
(L1L
tp2822
(L1L
tp2823
tp2824
Rp2825
tp2826
Rp2827
(I01
I00
Ntp2828
bag5
(g6
g7
(g8
((lp2829
F2.779282331466675
atp2830
Rp2831
I0
(L1L
tp2832
(L1L
tp2833
tp2834
Rp2835
tp2836
Rp2837
(I01
I00
Ntp2838
bag5
(g6
g7
(g8
((lp2839
F3.178656816482544
atp2840
Rp2841
I0
(L1L
tp2842
(L1L
tp2843
tp2844
Rp2845
tp2846
Rp2847
(I01
I00
Ntp2848
bag5
(g6
g7
(g8
((lp2849
F2.7634410858154297
atp2850
Rp2851
I0
(L1L
tp2852
(L1L
tp2853
tp2854
Rp2855
tp2856
Rp2857
(I01
I00
Ntp2858
bag5
(g6
g7
(g8
((lp2859
F3.230163335800171
atp2860
Rp2861
I0
(L1L
tp2862
(L1L
tp2863
tp2864
Rp2865
tp2866
Rp2867
(I01
I00
Ntp2868
bag5
(g6
g7
(g8
((lp2869
F3.3173537254333496
atp2870
Rp2871
I0
(L1L
tp2872
(L1L
tp2873
tp2874
Rp2875
tp2876
Rp2877
(I01
I00
Ntp2878
bag5
(g6
g7
(g8
((lp2879
F3.1731514930725098
atp2880
Rp2881
I0
(L1L
tp2882
(L1L
tp2883
tp2884
Rp2885
tp2886
Rp2887
(I01
I00
Ntp2888
bag5
(g6
g7
(g8
((lp2889
F2.9008007049560547
atp2890
Rp2891
I0
(L1L
tp2892
(L1L
tp2893
tp2894
Rp2895
tp2896
Rp2897
(I01
I00
Ntp2898
bag5
(g6
g7
(g8
((lp2899
F2.864981174468994
atp2900
Rp2901
I0
(L1L
tp2902
(L1L
tp2903
tp2904
Rp2905
tp2906
Rp2907
(I01
I00
Ntp2908
bag5
(g6
g7
(g8
((lp2909
F2.9373831748962402
atp2910
Rp2911
I0
(L1L
tp2912
(L1L
tp2913
tp2914
Rp2915
tp2916
Rp2917
(I01
I00
Ntp2918
bag5
(g6
g7
(g8
((lp2919
F2.2836034297943115
atp2920
Rp2921
I0
(L1L
tp2922
(L1L
tp2923
tp2924
Rp2925
tp2926
Rp2927
(I01
I00
Ntp2928
bag5
(g6
g7
(g8
((lp2929
F2.099165439605713
atp2930
Rp2931
I0
(L1L
tp2932
(L1L
tp2933
tp2934
Rp2935
tp2936
Rp2937
(I01
I00
Ntp2938
bag5
(g6
g7
(g8
((lp2939
F2.295034408569336
atp2940
Rp2941
I0
(L1L
tp2942
(L1L
tp2943
tp2944
Rp2945
tp2946
Rp2947
(I01
I00
Ntp2948
bag5
(g6
g7
(g8
((lp2949
F2.1780738830566406
atp2950
Rp2951
I0
(L1L
tp2952
(L1L
tp2953
tp2954
Rp2955
tp2956
Rp2957
(I01
I00
Ntp2958
bag5
(g6
g7
(g8
((lp2959
F2.036015748977661
atp2960
Rp2961
I0
(L1L
tp2962
(L1L
tp2963
tp2964
Rp2965
tp2966
Rp2967
(I01
I00
Ntp2968
bag5
(g6
g7
(g8
((lp2969
F2.189272880554199
atp2970
Rp2971
I0
(L1L
tp2972
(L1L
tp2973
tp2974
Rp2975
tp2976
Rp2977
(I01
I00
Ntp2978
bag5
(g6
g7
(g8
((lp2979
F2.902395248413086
atp2980
Rp2981
I0
(L1L
tp2982
(L1L
tp2983
tp2984
Rp2985
tp2986
Rp2987
(I01
I00
Ntp2988
bag5
(g6
g7
(g8
((lp2989
F3.0832948684692383
atp2990
Rp2991
I0
(L1L
tp2992
(L1L
tp2993
tp2994
Rp2995
tp2996
Rp2997
(I01
I00
Ntp2998
bag5
(g6
g7
(g8
((lp2999
F3.2836005687713623
atp3000
Rp3001
I0
(L1L
tp3002
(L1L
tp3003
tp3004
Rp3005
tp3006
Rp3007
(I01
I00
Ntp3008
bag5
(g6
g7
(g8
((lp3009
F2.6687796115875244
atp3010
Rp3011
I0
(L1L
tp3012
(L1L
tp3013
tp3014
Rp3015
tp3016
Rp3017
(I01
I00
Ntp3018
bag5
(g6
g7
(g8
((lp3019
F2.7400524616241455
atp3020
Rp3021
I0
(L1L
tp3022
(L1L
tp3023
tp3024
Rp3025
tp3026
Rp3027
(I01
I00
Ntp3028
bag5
(g6
g7
(g8
((lp3029
F2.694101572036743
atp3030
Rp3031
I0
(L1L
tp3032
(L1L
tp3033
tp3034
Rp3035
tp3036
Rp3037
(I01
I00
Ntp3038
bag5
(g6
g7
(g8
((lp3039
F2.08647084236145
atp3040
Rp3041
I0
(L1L
tp3042
(L1L
tp3043
tp3044
Rp3045
tp3046
Rp3047
(I01
I00
Ntp3048
bag5
(g6
g7
(g8
((lp3049
F2.2244863510131836
atp3050
Rp3051
I0
(L1L
tp3052
(L1L
tp3053
tp3054
Rp3055
tp3056
Rp3057
(I01
I00
Ntp3058
bag5
(g6
g7
(g8
((lp3059
F2.3370282649993896
atp3060
Rp3061
I0
(L1L
tp3062
(L1L
tp3063
tp3064
Rp3065
tp3066
Rp3067
(I01
I00
Ntp3068
bag5
(g6
g7
(g8
((lp3069
F2.7868118286132812
atp3070
Rp3071
I0
(L1L
tp3072
(L1L
tp3073
tp3074
Rp3075
tp3076
Rp3077
(I01
I00
Ntp3078
bag5
(g6
g7
(g8
((lp3079
F2.902655839920044
atp3080
Rp3081
I0
(L1L
tp3082
(L1L
tp3083
tp3084
Rp3085
tp3086
Rp3087
(I01
I00
Ntp3088
bag5
(g6
g7
(g8
((lp3089
F2.7637581825256348
atp3090
Rp3091
I0
(L1L
tp3092
(L1L
tp3093
tp3094
Rp3095
tp3096
Rp3097
(I01
I00
Ntp3098
bag5
(g6
g7
(g8
((lp3099
F2.427034378051758
atp3100
Rp3101
I0
(L1L
tp3102
(L1L
tp3103
tp3104
Rp3105
tp3106
Rp3107
(I01
I00
Ntp3108
bag5
(g6
g7
(g8
((lp3109
F2.4139716625213623
atp3110
Rp3111
I0
(L1L
tp3112
(L1L
tp3113
tp3114
Rp3115
tp3116
Rp3117
(I01
I00
Ntp3118
bag5
(g6
g7
(g8
((lp3119
F2.2370798587799072
atp3120
Rp3121
I0
(L1L
tp3122
(L1L
tp3123
tp3124
Rp3125
tp3126
Rp3127
(I01
I00
Ntp3128
bag5
(g6
g7
(g8
((lp3129
F2.7323129177093506
atp3130
Rp3131
I0
(L1L
tp3132
(L1L
tp3133
tp3134
Rp3135
tp3136
Rp3137
(I01
I00
Ntp3138
bag5
(g6
g7
(g8
((lp3139
F2.6185598373413086
atp3140
Rp3141
I0
(L1L
tp3142
(L1L
tp3143
tp3144
Rp3145
tp3146
Rp3147
(I01
I00
Ntp3148
bag5
(g6
g7
(g8
((lp3149
F2.4857215881347656
atp3150
Rp3151
I0
(L1L
tp3152
(L1L
tp3153
tp3154
Rp3155
tp3156
Rp3157
(I01
I00
Ntp3158
bag5
(g6
g7
(g8
((lp3159
F2.1658992767333984
atp3160
Rp3161
I0
(L1L
tp3162
(L1L
tp3163
tp3164
Rp3165
tp3166
Rp3167
(I01
I00
Ntp3168
bag5
(g6
g7
(g8
((lp3169
F2.1220431327819824
atp3170
Rp3171
I0
(L1L
tp3172
(L1L
tp3173
tp3174
Rp3175
tp3176
Rp3177
(I01
I00
Ntp3178
bag5
(g6
g7
(g8
((lp3179
F2.2471299171447754
atp3180
Rp3181
I0
(L1L
tp3182
(L1L
tp3183
tp3184
Rp3185
tp3186
Rp3187
(I01
I00
Ntp3188
bag5
(g6
g7
(g8
((lp3189
F2.304478168487549
atp3190
Rp3191
I0
(L1L
tp3192
(L1L
tp3193
tp3194
Rp3195
tp3196
Rp3197
(I01
I00
Ntp3198
bag5
(g6
g7
(g8
((lp3199
F2.2040398120880127
atp3200
Rp3201
I0
(L1L
tp3202
(L1L
tp3203
tp3204
Rp3205
tp3206
Rp3207
(I01
I00
Ntp3208
bag5
(g6
g7
(g8
((lp3209
F2.6703708171844482
atp3210
Rp3211
I0
(L1L
tp3212
(L1L
tp3213
tp3214
Rp3215
tp3216
Rp3217
(I01
I00
Ntp3218
bag5
(g6
g7
(g8
((lp3219
F2.2039477825164795
atp3220
Rp3221
I0
(L1L
tp3222
(L1L
tp3223
tp3224
Rp3225
tp3226
Rp3227
(I01
I00
Ntp3228
bag5
(g6
g7
(g8
((lp3229
F2.191572666168213
atp3230
Rp3231
I0
(L1L
tp3232
(L1L
tp3233
tp3234
Rp3235
tp3236
Rp3237
(I01
I00
Ntp3238
bag5
(g6
g7
(g8
((lp3239
F2.213566780090332
atp3240
Rp3241
I0
(L1L
tp3242
(L1L
tp3243
tp3244
Rp3245
tp3246
Rp3247
(I01
I00
Ntp3248
bag5
(g6
g7
(g8
((lp3249
F3.12577486038208
atp3250
Rp3251
I0
(L1L
tp3252
(L1L
tp3253
tp3254
Rp3255
tp3256
Rp3257
(I01
I00
Ntp3258
bag5
(g6
g7
(g8
((lp3259
F3.2221519947052
atp3260
Rp3261
I0
(L1L
tp3262
(L1L
tp3263
tp3264
Rp3265
tp3266
Rp3267
(I01
I00
Ntp3268
bag5
(g6
g7
(g8
((lp3269
F2.6509923934936523
atp3270
Rp3271
I0
(L1L
tp3272
(L1L
tp3273
tp3274
Rp3275
tp3276
Rp3277
(I01
I00
Ntp3278
bag5
(g6
g7
(g8
((lp3279
F2.67033314704895
atp3280
Rp3281
I0
(L1L
tp3282
(L1L
tp3283
tp3284
Rp3285
tp3286
Rp3287
(I01
I00
Ntp3288
bag5
(g6
g7
(g8
((lp3289
F2.571481704711914
atp3290
Rp3291
I0
(L1L
tp3292
(L1L
tp3293
tp3294
Rp3295
tp3296
Rp3297
(I01
I00
Ntp3298
bag5
(g6
g7
(g8
((lp3299
F2.556466817855835
atp3300
Rp3301
I0
(L1L
tp3302
(L1L
tp3303
tp3304
Rp3305
tp3306
Rp3307
(I01
I00
Ntp3308
bag5
(g6
g7
(g8
((lp3309
F2.8771111965179443
atp3310
Rp3311
I0
(L1L
tp3312
(L1L
tp3313
tp3314
Rp3315
tp3316
Rp3317
(I01
I00
Ntp3318
bag5
(g6
g7
(g8
((lp3319
F3.0577733516693115
atp3320
Rp3321
I0
(L1L
tp3322
(L1L
tp3323
tp3324
Rp3325
tp3326
Rp3327
(I01
I00
Ntp3328
bag5
(g6
g7
(g8
((lp3329
F2.9034390449523926
atp3330
Rp3331
I0
(L1L
tp3332
(L1L
tp3333
tp3334
Rp3335
tp3336
Rp3337
(I01
I00
Ntp3338
bag5
(g6
g7
(g8
((lp3339
F2.523179054260254
atp3340
Rp3341
I0
(L1L
tp3342
(L1L
tp3343
tp3344
Rp3345
tp3346
Rp3347
(I01
I00
Ntp3348
bag5
(g6
g7
(g8
((lp3349
F2.8247997760772705
atp3350
Rp3351
I0
(L1L
tp3352
(L1L
tp3353
tp3354
Rp3355
tp3356
Rp3357
(I01
I00
Ntp3358
bag5
(g6
g7
(g8
((lp3359
F2.7554433345794678
atp3360
Rp3361
I0
(L1L
tp3362
(L1L
tp3363
tp3364
Rp3365
tp3366
Rp3367
(I01
I00
Ntp3368
bag5
(g6
g7
(g8
((lp3369
F3.3917062282562256
atp3370
Rp3371
I0
(L1L
tp3372
(L1L
tp3373
tp3374
Rp3375
tp3376
Rp3377
(I01
I00
Ntp3378
bag5
(g6
g7
(g8
((lp3379
F3.2509045600891113
atp3380
Rp3381
I0
(L1L
tp3382
(L1L
tp3383
tp3384
Rp3385
tp3386
Rp3387
(I01
I00
Ntp3388
bag5
(g6
g7
(g8
((lp3389
F3.1602623462677
atp3390
Rp3391
I0
(L1L
tp3392
(L1L
tp3393
tp3394
Rp3395
tp3396
Rp3397
(I01
I00
Ntp3398
bag5
(g6
g7
(g8
((lp3399
F2.6253457069396973
atp3400
Rp3401
I0
(L1L
tp3402
(L1L
tp3403
tp3404
Rp3405
tp3406
Rp3407
(I01
I00
Ntp3408
bag5
(g6
g7
(g8
((lp3409
F2.6789474487304688
atp3410
Rp3411
I0
(L1L
tp3412
(L1L
tp3413
tp3414
Rp3415
tp3416
Rp3417
(I01
I00
Ntp3418
bag5
(g6
g7
(g8
((lp3419
F2.914935350418091
atp3420
Rp3421
I0
(L1L
tp3422
(L1L
tp3423
tp3424
Rp3425
tp3426
Rp3427
(I01
I00
Ntp3428
bag5
(g6
g7
(g8
((lp3429
F2.9587900638580322
atp3430
Rp3431
I0
(L1L
tp3432
(L1L
tp3433
tp3434
Rp3435
tp3436
Rp3437
(I01
I00
Ntp3438
bag5
(g6
g7
(g8
((lp3439
F2.913407802581787
atp3440
Rp3441
I0
(L1L
tp3442
(L1L
tp3443
tp3444
Rp3445
tp3446
Rp3447
(I01
I00
Ntp3448
bag5
(g6
g7
(g8
((lp3449
F2.9090182781219482
atp3450
Rp3451
I0
(L1L
tp3452
(L1L
tp3453
tp3454
Rp3455
tp3456
Rp3457
(I01
I00
Ntp3458
bag5
(g6
g7
(g8
((lp3459
F3.4450173377990723
atp3460
Rp3461
I0
(L1L
tp3462
(L1L
tp3463
tp3464
Rp3465
tp3466
Rp3467
(I01
I00
Ntp3468
bag5
(g6
g7
(g8
((lp3469
F3.3383452892303467
atp3470
Rp3471
I0
(L1L
tp3472
(L1L
tp3473
tp3474
Rp3475
tp3476
Rp3477
(I01
I00
Ntp3478
bag5
(g6
g7
(g8
((lp3479
F3.414686918258667
atp3480
Rp3481
I0
(L1L
tp3482
(L1L
tp3483
tp3484
Rp3485
tp3486
Rp3487
(I01
I00
Ntp3488
bag5
(g6
g7
(g8
((lp3489
F2.1451575756073
atp3490
Rp3491
I0
(L1L
tp3492
(L1L
tp3493
tp3494
Rp3495
tp3496
Rp3497
(I01
I00
Ntp3498
bag5
(g6
g7
(g8
((lp3499
F2.123026132583618
atp3500
Rp3501
I0
(L1L
tp3502
(L1L
tp3503
tp3504
Rp3505
tp3506
Rp3507
(I01
I00
Ntp3508
bag5
(g6
g7
(g8
((lp3509
F2.2013280391693115
atp3510
Rp3511
I0
(L1L
tp3512
(L1L
tp3513
tp3514
Rp3515
tp3516
Rp3517
(I01
I00
Ntp3518
bag5
(g6
g7
(g8
((lp3519
F2.506186008453369
atp3520
Rp3521
I0
(L1L
tp3522
(L1L
tp3523
tp3524
Rp3525
tp3526
Rp3527
(I01
I00
Ntp3528
bag5
(g6
g7
(g8
((lp3529
F2.899798631668091
atp3530
Rp3531
I0
(L1L
tp3532
(L1L
tp3533
tp3534
Rp3535
tp3536
Rp3537
(I01
I00
Ntp3538
bag5
(g6
g7
(g8
((lp3539
F2.8293585777282715
atp3540
Rp3541
I0
(L1L
tp3542
(L1L
tp3543
tp3544
Rp3545
tp3546
Rp3547
(I01
I00
Ntp3548
bag5
(g6
g7
(g8
((lp3549
F2.2407829761505127
atp3550
Rp3551
I0
(L1L
tp3552
(L1L
tp3553
tp3554
Rp3555
tp3556
Rp3557
(I01
I00
Ntp3558
bag5
(g6
g7
(g8
((lp3559
F2.2906668186187744
atp3560
Rp3561
I0
(L1L
tp3562
(L1L
tp3563
tp3564
Rp3565
tp3566
Rp3567
(I01
I00
Ntp3568
bag5
(g6
g7
(g8
((lp3569
F2.067065477371216
atp3570
Rp3571
I0
(L1L
tp3572
(L1L
tp3573
tp3574
Rp3575
tp3576
Rp3577
(I01
I00
Ntp3578
bag5
(g6
g7
(g8
((lp3579
F2.541529655456543
atp3580
Rp3581
I0
(L1L
tp3582
(L1L
tp3583
tp3584
Rp3585
tp3586
Rp3587
(I01
I00
Ntp3588
bag5
(g6
g7
(g8
((lp3589
F2.38862681388855
atp3590
Rp3591
I0
(L1L
tp3592
(L1L
tp3593
tp3594
Rp3595
tp3596
Rp3597
(I01
I00
Ntp3598
bag5
(g6
g7
(g8
((lp3599
F2.320044994354248
atp3600
Rp3601
I0
(L1L
tp3602
(L1L
tp3603
tp3604
Rp3605
tp3606
Rp3607
(I01
I00
Ntp3608
bag5
(g6
g7
(g8
((lp3609
F2.429325819015503
atp3610
Rp3611
I0
(L1L
tp3612
(L1L
tp3613
tp3614
Rp3615
tp3616
Rp3617
(I01
I00
Ntp3618
bag5
(g6
g7
(g8
((lp3619
F2.190396785736084
atp3620
Rp3621
I0
(L1L
tp3622
(L1L
tp3623
tp3624
Rp3625
tp3626
Rp3627
(I01
I00
Ntp3628
bag5
(g6
g7
(g8
((lp3629
F2.4606027603149414
atp3630
Rp3631
I0
(L1L
tp3632
(L1L
tp3633
tp3634
Rp3635
tp3636
Rp3637
(I01
I00
Ntp3638
bag5
(g6
g7
(g8
((lp3639
F3.7006442546844482
atp3640
Rp3641
I0
(L1L
tp3642
(L1L
tp3643
tp3644
Rp3645
tp3646
Rp3647
(I01
I00
Ntp3648
bag5
(g6
g7
(g8
((lp3649
F3.9609997272491455
atp3650
Rp3651
I0
(L1L
tp3652
(L1L
tp3653
tp3654
Rp3655
tp3656
Rp3657
(I01
I00
Ntp3658
bag5
(g6
g7
(g8
((lp3659
F3.694303274154663
atp3660
Rp3661
I0
(L1L
tp3662
(L1L
tp3663
tp3664
Rp3665
tp3666
Rp3667
(I01
I00
Ntp3668
bag5
(g6
g7
(g8
((lp3669
F2.7323296070098877
atp3670
Rp3671
I0
(L1L
tp3672
(L1L
tp3673
tp3674
Rp3675
tp3676
Rp3677
(I01
I00
Ntp3678
bag5
(g6
g7
(g8
((lp3679
F2.593254804611206
atp3680
Rp3681
I0
(L1L
tp3682
(L1L
tp3683
tp3684
Rp3685
tp3686
Rp3687
(I01
I00
Ntp3688
bag5
(g6
g7
(g8
((lp3689
F2.7148313522338867
atp3690
Rp3691
I0
(L1L
tp3692
(L1L
tp3693
tp3694
Rp3695
tp3696
Rp3697
(I01
I00
Ntp3698
bag5
(g6
g7
(g8
((lp3699
F2.4817802906036377
atp3700
Rp3701
I0
(L1L
tp3702
(L1L
tp3703
tp3704
Rp3705
tp3706
Rp3707
(I01
I00
Ntp3708
bag5
(g6
g7
(g8
((lp3709
F2.2249958515167236
atp3710
Rp3711
I0
(L1L
tp3712
(L1L
tp3713
tp3714
Rp3715
tp3716
Rp3717
(I01
I00
Ntp3718
bag5
(g6
g7
(g8
((lp3719
F2.4942426681518555
atp3720
Rp3721
I0
(L1L
tp3722
(L1L
tp3723
tp3724
Rp3725
tp3726
Rp3727
(I01
I00
Ntp3728
bag5
(g6
g7
(g8
((lp3729
F2.6913857460021973
atp3730
Rp3731
I0
(L1L
tp3732
(L1L
tp3733
tp3734
Rp3735
tp3736
Rp3737
(I01
I00
Ntp3738
bag5
(g6
g7
(g8
((lp3739
F2.63431978225708
atp3740
Rp3741
I0
(L1L
tp3742
(L1L
tp3743
tp3744
Rp3745
tp3746
Rp3747
(I01
I00
Ntp3748
bag5
(g6
g7
(g8
((lp3749
F2.7375051975250244
atp3750
Rp3751
I0
(L1L
tp3752
(L1L
tp3753
tp3754
Rp3755
tp3756
Rp3757
(I01
I00
Ntp3758
bag5
(g6
g7
(g8
((lp3759
F2.7607760429382324
atp3760
Rp3761
I0
(L1L
tp3762
(L1L
tp3763
tp3764
Rp3765
tp3766
Rp3767
(I01
I00
Ntp3768
bag5
(g6
g7
(g8
((lp3769
F2.6520743370056152
atp3770
Rp3771
I0
(L1L
tp3772
(L1L
tp3773
tp3774
Rp3775
tp3776
Rp3777
(I01
I00
Ntp3778
bag5
(g6
g7
(g8
((lp3779
F2.4496655464172363
atp3780
Rp3781
I0
(L1L
tp3782
(L1L
tp3783
tp3784
Rp3785
tp3786
Rp3787
(I01
I00
Ntp3788
bag5
(g6
g7
(g8
((lp3789
F2.7324085235595703
atp3790
Rp3791
I0
(L1L
tp3792
(L1L
tp3793
tp3794
Rp3795
tp3796
Rp3797
(I01
I00
Ntp3798
bag5
(g6
g7
(g8
((lp3799
F2.936767578125
atp3800
Rp3801
I0
(L1L
tp3802
(L1L
tp3803
tp3804
Rp3805
tp3806
Rp3807
(I01
I00
Ntp3808
bag5
(g6
g7
(g8
((lp3809
F3.097058057785034
atp3810
Rp3811
I0
(L1L
tp3812
(L1L
tp3813
tp3814
Rp3815
tp3816
Rp3817
(I01
I00
Ntp3818
bag5
(g6
g7
(g8
((lp3819
F2.5503406524658203
atp3820
Rp3821
I0
(L1L
tp3822
(L1L
tp3823
tp3824
Rp3825
tp3826
Rp3827
(I01
I00
Ntp3828
bag5
(g6
g7
(g8
((lp3829
F2.6389801502227783
atp3830
Rp3831
I0
(L1L
tp3832
(L1L
tp3833
tp3834
Rp3835
tp3836
Rp3837
(I01
I00
Ntp3838
bag5
(g6
g7
(g8
((lp3839
F2.483701467514038
atp3840
Rp3841
I0
(L1L
tp3842
(L1L
tp3843
tp3844
Rp3845
tp3846
Rp3847
(I01
I00
Ntp3848
bag5
(g6
g7
(g8
((lp3849
F1.642777919769287
atp3850
Rp3851
I0
(L1L
tp3852
(L1L
tp3853
tp3854
Rp3855
tp3856
Rp3857
(I01
I00
Ntp3858
bag5
(g6
g7
(g8
((lp3859
F1.758806586265564
atp3860
Rp3861
I0
(L1L
tp3862
(L1L
tp3863
tp3864
Rp3865
tp3866
Rp3867
(I01
I00
Ntp3868
bag5
(g6
g7
(g8
((lp3869
F1.6364980936050415
atp3870
Rp3871
I0
(L1L
tp3872
(L1L
tp3873
tp3874
Rp3875
tp3876
Rp3877
(I01
I00
Ntp3878
bag5
(g6
g7
(g8
((lp3879
F1.9612890481948853
atp3880
Rp3881
I0
(L1L
tp3882
(L1L
tp3883
tp3884
Rp3885
tp3886
Rp3887
(I01
I00
Ntp3888
bag5
(g6
g7
(g8
((lp3889
F1.7971121072769165
atp3890
Rp3891
I0
(L1L
tp3892
(L1L
tp3893
tp3894
Rp3895
tp3896
Rp3897
(I01
I00
Ntp3898
bag5
(g6
g7
(g8
((lp3899
F1.8592981100082397
atp3900
Rp3901
I0
(L1L
tp3902
(L1L
tp3903
tp3904
Rp3905
tp3906
Rp3907
(I01
I00
Ntp3908
bag5
(g6
g7
(g8
((lp3909
F2.131166458129883
atp3910
Rp3911
I0
(L1L
tp3912
(L1L
tp3913
tp3914
Rp3915
tp3916
Rp3917
(I01
I00
Ntp3918
bag5
(g6
g7
(g8
((lp3919
F2.2749547958374023
atp3920
Rp3921
I0
(L1L
tp3922
(L1L
tp3923
tp3924
Rp3925
tp3926
Rp3927
(I01
I00
Ntp3928
bag5
(g6
g7
(g8
((lp3929
F2.1790904998779297
atp3930
Rp3931
I0
(L1L
tp3932
(L1L
tp3933
tp3934
Rp3935
tp3936
Rp3937
(I01
I00
Ntp3938
bag5
(g6
g7
(g8
((lp3939
F2.363699436187744
atp3940
Rp3941
I0
(L1L
tp3942
(L1L
tp3943
tp3944
Rp3945
tp3946
Rp3947
(I01
I00
Ntp3948
bag5
(g6
g7
(g8
((lp3949
F2.559194326400757
atp3950
Rp3951
I0
(L1L
tp3952
(L1L
tp3953
tp3954
Rp3955
tp3956
Rp3957
(I01
I00
Ntp3958
bag5
(g6
g7
(g8
((lp3959
F2.407470941543579
atp3960
Rp3961
I0
(L1L
tp3962
(L1L
tp3963
tp3964
Rp3965
tp3966
Rp3967
(I01
I00
Ntp3968
bag5
(g6
g7
(g8
((lp3969
F2.823756456375122
atp3970
Rp3971
I0
(L1L
tp3972
(L1L
tp3973
tp3974
Rp3975
tp3976
Rp3977
(I01
I00
Ntp3978
bag5
(g6
g7
(g8
((lp3979
F2.306875467300415
atp3980
Rp3981
I0
(L1L
tp3982
(L1L
tp3983
tp3984
Rp3985
tp3986
Rp3987
(I01
I00
Ntp3988
bag5
(g6
g7
(g8
((lp3989
F2.6541178226470947
atp3990
Rp3991
I0
(L1L
tp3992
(L1L
tp3993
tp3994
Rp3995
tp3996
Rp3997
(I01
I00
Ntp3998
bag5
(g6
g7
(g8
((lp3999
F2.5780184268951416
atp4000
Rp4001
I0
(L1L
tp4002
(L1L
tp4003
tp4004
Rp4005
tp4006
Rp4007
(I01
I00
Ntp4008
bag5
(g6
g7
(g8
((lp4009
F2.597707509994507
atp4010
Rp4011
I0
(L1L
tp4012
(L1L
tp4013
tp4014
Rp4015
tp4016
Rp4017
(I01
I00
Ntp4018
bag5
(g6
g7
(g8
((lp4019
F2.702669382095337
atp4020
Rp4021
I0
(L1L
tp4022
(L1L
tp4023
tp4024
Rp4025
tp4026
Rp4027
(I01
I00
Ntp4028
bag5
(g6
g7
(g8
((lp4029
F2.5866873264312744
atp4030
Rp4031
I0
(L1L
tp4032
(L1L
tp4033
tp4034
Rp4035
tp4036
Rp4037
(I01
I00
Ntp4038
bag5
(g6
g7
(g8
((lp4039
F2.7086825370788574
atp4040
Rp4041
I0
(L1L
tp4042
(L1L
tp4043
tp4044
Rp4045
tp4046
Rp4047
(I01
I00
Ntp4048
bag5
(g6
g7
(g8
((lp4049
F2.6662344932556152
atp4050
Rp4051
I0
(L1L
tp4052
(L1L
tp4053
tp4054
Rp4055
tp4056
Rp4057
(I01
I00
Ntp4058
bag5
(g6
g7
(g8
((lp4059
F2.060270309448242
atp4060
Rp4061
I0
(L1L
tp4062
(L1L
tp4063
tp4064
Rp4065
tp4066
Rp4067
(I01
I00
Ntp4068
bag5
(g6
g7
(g8
((lp4069
F2.098543882369995
atp4070
Rp4071
I0
(L1L
tp4072
(L1L
tp4073
tp4074
Rp4075
tp4076
Rp4077
(I01
I00
Ntp4078
bag5
(g6
g7
(g8
((lp4079
F1.9925891160964966
atp4080
Rp4081
I0
(L1L
tp4082
(L1L
tp4083
tp4084
Rp4085
tp4086
Rp4087
(I01
I00
Ntp4088
bag5
(g6
g7
(g8
((lp4089
F2.1944589614868164
atp4090
Rp4091
I0
(L1L
tp4092
(L1L
tp4093
tp4094
Rp4095
tp4096
Rp4097
(I01
I00
Ntp4098
bag5
(g6
g7
(g8
((lp4099
F2.264449119567871
atp4100
Rp4101
I0
(L1L
tp4102
(L1L
tp4103
tp4104
Rp4105
tp4106
Rp4107
(I01
I00
Ntp4108
bag5
(g6
g7
(g8
((lp4109
F2.2813544273376465
atp4110
Rp4111
I0
(L1L
tp4112
(L1L
tp4113
tp4114
Rp4115
tp4116
Rp4117
(I01
I00
Ntp4118
bag5
(g6
g7
(g8
((lp4119
F2.5291061401367188
atp4120
Rp4121
I0
(L1L
tp4122
(L1L
tp4123
tp4124
Rp4125
tp4126
Rp4127
(I01
I00
Ntp4128
bag5
(g6
g7
(g8
((lp4129
F2.367056369781494
atp4130
Rp4131
I0
(L1L
tp4132
(L1L
tp4133
tp4134
Rp4135
tp4136
Rp4137
(I01
I00
Ntp4138
bag5
(g6
g7
(g8
((lp4139
F2.534001588821411
atp4140
Rp4141
I0
(L1L
tp4142
(L1L
tp4143
tp4144
Rp4145
tp4146
Rp4147
(I01
I00
Ntp4148
bag5
(g6
g7
(g8
((lp4149
F2.335253953933716
atp4150
Rp4151
I0
(L1L
tp4152
(L1L
tp4153
tp4154
Rp4155
tp4156
Rp4157
(I01
I00
Ntp4158
bag5
(g6
g7
(g8
((lp4159
F2.330089807510376
atp4160
Rp4161
I0
(L1L
tp4162
(L1L
tp4163
tp4164
Rp4165
tp4166
Rp4167
(I01
I00
Ntp4168
bag5
(g6
g7
(g8
((lp4169
F2.363208532333374
atp4170
Rp4171
I0
(L1L
tp4172
(L1L
tp4173
tp4174
Rp4175
tp4176
Rp4177
(I01
I00
Ntp4178
bag5
(g6
g7
(g8
((lp4179
F2.0389151573181152
atp4180
Rp4181
I0
(L1L
tp4182
(L1L
tp4183
tp4184
Rp4185
tp4186
Rp4187
(I01
I00
Ntp4188
bag5
(g6
g7
(g8
((lp4189
F2.1181044578552246
atp4190
Rp4191
I0
(L1L
tp4192
(L1L
tp4193
tp4194
Rp4195
tp4196
Rp4197
(I01
I00
Ntp4198
bag5
(g6
g7
(g8
((lp4199
F2.213503360748291
atp4200
Rp4201
I0
(L1L
tp4202
(L1L
tp4203
tp4204
Rp4205
tp4206
Rp4207
(I01
I00
Ntp4208
bag5
(g6
g7
(g8
((lp4209
F2.578045606613159
atp4210
Rp4211
I0
(L1L
tp4212
(L1L
tp4213
tp4214
Rp4215
tp4216
Rp4217
(I01
I00
Ntp4218
bag5
(g6
g7
(g8
((lp4219
F2.511691093444824
atp4220
Rp4221
I0
(L1L
tp4222
(L1L
tp4223
tp4224
Rp4225
tp4226
Rp4227
(I01
I00
Ntp4228
bag5
(g6
g7
(g8
((lp4229
F2.5665183067321777
atp4230
Rp4231
I0
(L1L
tp4232
(L1L
tp4233
tp4234
Rp4235
tp4236
Rp4237
(I01
I00
Ntp4238
bag5
(g6
g7
(g8
((lp4239
F1.9581575393676758
atp4240
Rp4241
I0
(L1L
tp4242
(L1L
tp4243
tp4244
Rp4245
tp4246
Rp4247
(I01
I00
Ntp4248
bag5
(g6
g7
(g8
((lp4249
F2.181511163711548
atp4250
Rp4251
I0
(L1L
tp4252
(L1L
tp4253
tp4254
Rp4255
tp4256
Rp4257
(I01
I00
Ntp4258
bag5
(g6
g7
(g8
((lp4259
F2.075111150741577
atp4260
Rp4261
I0
(L1L
tp4262
(L1L
tp4263
tp4264
Rp4265
tp4266
Rp4267
(I01
I00
Ntp4268
bag5
(g6
g7
(g8
((lp4269
F2.398066520690918
atp4270
Rp4271
I0
(L1L
tp4272
(L1L
tp4273
tp4274
Rp4275
tp4276
Rp4277
(I01
I00
Ntp4278
bag5
(g6
g7
(g8
((lp4279
F2.498899459838867
atp4280
Rp4281
I0
(L1L
tp4282
(L1L
tp4283
tp4284
Rp4285
tp4286
Rp4287
(I01
I00
Ntp4288
bag5
(g6
g7
(g8
((lp4289
F2.4860546588897705
atp4290
Rp4291
I0
(L1L
tp4292
(L1L
tp4293
tp4294
Rp4295
tp4296
Rp4297
(I01
I00
Ntp4298
bag5
(g6
g7
(g8
((lp4299
F2.5514461994171143
atp4300
Rp4301
I0
(L1L
tp4302
(L1L
tp4303
tp4304
Rp4305
tp4306
Rp4307
(I01
I00
Ntp4308
bag5
(g6
g7
(g8
((lp4309
F2.458742141723633
atp4310
Rp4311
I0
(L1L
tp4312
(L1L
tp4313
tp4314
Rp4315
tp4316
Rp4317
(I01
I00
Ntp4318
bag5
(g6
g7
(g8
((lp4319
F2.465391159057617
atp4320
Rp4321
I0
(L1L
tp4322
(L1L
tp4323
tp4324
Rp4325
tp4326
Rp4327
(I01
I00
Ntp4328
bag5
(g6
g7
(g8
((lp4329
F2.4356398582458496
atp4330
Rp4331
I0
(L1L
tp4332
(L1L
tp4333
tp4334
Rp4335
tp4336
Rp4337
(I01
I00
Ntp4338
bag5
(g6
g7
(g8
((lp4339
F2.4263124465942383
atp4340
Rp4341
I0
(L1L
tp4342
(L1L
tp4343
tp4344
Rp4345
tp4346
Rp4347
(I01
I00
Ntp4348
bag5
(g6
g7
(g8
((lp4349
F2.173776149749756
atp4350
Rp4351
I0
(L1L
tp4352
(L1L
tp4353
tp4354
Rp4355
tp4356
Rp4357
(I01
I00
Ntp4358
bag5
(g6
g7
(g8
((lp4359
F2.290334701538086
atp4360
Rp4361
I0
(L1L
tp4362
(L1L
tp4363
tp4364
Rp4365
tp4366
Rp4367
(I01
I00
Ntp4368
bag5
(g6
g7
(g8
((lp4369
F2.2718143463134766
atp4370
Rp4371
I0
(L1L
tp4372
(L1L
tp4373
tp4374
Rp4375
tp4376
Rp4377
(I01
I00
Ntp4378
bag5
(g6
g7
(g8
((lp4379
F2.2262887954711914
atp4380
Rp4381
I0
(L1L
tp4382
(L1L
tp4383
tp4384
Rp4385
tp4386
Rp4387
(I01
I00
Ntp4388
bag5
(g6
g7
(g8
((lp4389
F2.4565987586975098
atp4390
Rp4391
I0
(L1L
tp4392
(L1L
tp4393
tp4394
Rp4395
tp4396
Rp4397
(I01
I00
Ntp4398
bag5
(g6
g7
(g8
((lp4399
F2.3755619525909424
atp4400
Rp4401
I0
(L1L
tp4402
(L1L
tp4403
tp4404
Rp4405
tp4406
Rp4407
(I01
I00
Ntp4408
bag5
(g6
g7
(g8
((lp4409
F2.409031391143799
atp4410
Rp4411
I0
(L1L
tp4412
(L1L
tp4413
tp4414
Rp4415
tp4416
Rp4417
(I01
I00
Ntp4418
bag5
(g6
g7
(g8
((lp4419
F2.521632671356201
atp4420
Rp4421
I0
(L1L
tp4422
(L1L
tp4423
tp4424
Rp4425
tp4426
Rp4427
(I01
I00
Ntp4428
bag5
(g6
g7
(g8
((lp4429
F2.565131425857544
atp4430
Rp4431
I0
(L1L
tp4432
(L1L
tp4433
tp4434
Rp4435
tp4436
Rp4437
(I01
I00
Ntp4438
bag5
(g6
g7
(g8
((lp4439
F2.680753231048584
atp4440
Rp4441
I0
(L1L
tp4442
(L1L
tp4443
tp4444
Rp4445
tp4446
Rp4447
(I01
I00
Ntp4448
bag5
(g6
g7
(g8
((lp4449
F2.678448438644409
atp4450
Rp4451
I0
(L1L
tp4452
(L1L
tp4453
tp4454
Rp4455
tp4456
Rp4457
(I01
I00
Ntp4458
bag5
(g6
g7
(g8
((lp4459
F2.6597115993499756
atp4460
Rp4461
I0
(L1L
tp4462
(L1L
tp4463
tp4464
Rp4465
tp4466
Rp4467
(I01
I00
Ntp4468
bag5
(g6
g7
(g8
((lp4469
F2.8537793159484863
atp4470
Rp4471
I0
(L1L
tp4472
(L1L
tp4473
tp4474
Rp4475
tp4476
Rp4477
(I01
I00
Ntp4478
bag5
(g6
g7
(g8
((lp4479
F2.4405813217163086
atp4480
Rp4481
I0
(L1L
tp4482
(L1L
tp4483
tp4484
Rp4485
tp4486
Rp4487
(I01
I00
Ntp4488
bag5
(g6
g7
(g8
((lp4489
F2.4116408824920654
atp4490
Rp4491
I0
(L1L
tp4492
(L1L
tp4493
tp4494
Rp4495
tp4496
Rp4497
(I01
I00
Ntp4498
bag5
(g6
g7
(g8
((lp4499
F2.4529759883880615
atp4500
Rp4501
I0
(L1L
tp4502
(L1L
tp4503
tp4504
Rp4505
tp4506
Rp4507
(I01
I00
Ntp4508
bag5
(g6
g7
(g8
((lp4509
F2.327122449874878
atp4510
Rp4511
I0
(L1L
tp4512
(L1L
tp4513
tp4514
Rp4515
tp4516
Rp4517
(I01
I00
Ntp4518
bag5
(g6
g7
(g8
((lp4519
F2.2258450984954834
atp4520
Rp4521
I0
(L1L
tp4522
(L1L
tp4523
tp4524
Rp4525
tp4526
Rp4527
(I01
I00
Ntp4528
bag5
(g6
g7
(g8
((lp4529
F2.3553388118743896
atp4530
Rp4531
I0
(L1L
tp4532
(L1L
tp4533
tp4534
Rp4535
tp4536
Rp4537
(I01
I00
Ntp4538
bag5
(g6
g7
(g8
((lp4539
F2.5095837116241455
atp4540
Rp4541
I0
(L1L
tp4542
(L1L
tp4543
tp4544
Rp4545
tp4546
Rp4547
(I01
I00
Ntp4548
bag5
(g6
g7
(g8
((lp4549
F2.540409803390503
atp4550
Rp4551
I0
(L1L
tp4552
(L1L
tp4553
tp4554
Rp4555
tp4556
Rp4557
(I01
I00
Ntp4558
bag5
(g6
g7
(g8
((lp4559
F2.3069357872009277
atp4560
Rp4561
I0
(L1L
tp4562
(L1L
tp4563
tp4564
Rp4565
tp4566
Rp4567
(I01
I00
Ntp4568
bag5
(g6
g7
(g8
((lp4569
F2.4870388507843018
atp4570
Rp4571
I0
(L1L
tp4572
(L1L
tp4573
tp4574
Rp4575
tp4576
Rp4577
(I01
I00
Ntp4578
bag5
(g6
g7
(g8
((lp4579
F2.5553295612335205
atp4580
Rp4581
I0
(L1L
tp4582
(L1L
tp4583
tp4584
Rp4585
tp4586
Rp4587
(I01
I00
Ntp4588
bag5
(g6
g7
(g8
((lp4589
F2.5461585521698
atp4590
Rp4591
I0
(L1L
tp4592
(L1L
tp4593
tp4594
Rp4595
tp4596
Rp4597
(I01
I00
Ntp4598
bag5
(g6
g7
(g8
((lp4599
F2.6832780838012695
atp4600
Rp4601
I0
(L1L
tp4602
(L1L
tp4603
tp4604
Rp4605
tp4606
Rp4607
(I01
I00
Ntp4608
bag5
(g6
g7
(g8
((lp4609
F2.610030174255371
atp4610
Rp4611
I0
(L1L
tp4612
(L1L
tp4613
tp4614
Rp4615
tp4616
Rp4617
(I01
I00
Ntp4618
bag5
(g6
g7
(g8
((lp4619
F2.499342441558838
atp4620
Rp4621
I0
(L1L
tp4622
(L1L
tp4623
tp4624
Rp4625
tp4626
Rp4627
(I01
I00
Ntp4628
bag5
(g6
g7
(g8
((lp4629
F2.238581657409668
atp4630
Rp4631
I0
(L1L
tp4632
(L1L
tp4633
tp4634
Rp4635
tp4636
Rp4637
(I01
I00
Ntp4638
bag5
(g6
g7
(g8
((lp4639
F2.3168718814849854
atp4640
Rp4641
I0
(L1L
tp4642
(L1L
tp4643
tp4644
Rp4645
tp4646
Rp4647
(I01
I00
Ntp4648
bag5
(g6
g7
(g8
((lp4649
F2.3805930614471436
atp4650
Rp4651
I0
(L1L
tp4652
(L1L
tp4653
tp4654
Rp4655
tp4656
Rp4657
(I01
I00
Ntp4658
bag5
(g6
g7
(g8
((lp4659
F3.0650594234466553
atp4660
Rp4661
I0
(L1L
tp4662
(L1L
tp4663
tp4664
Rp4665
tp4666
Rp4667
(I01
I00
Ntp4668
bag5
(g6
g7
(g8
((lp4669
F3.044600486755371
atp4670
Rp4671
I0
(L1L
tp4672
(L1L
tp4673
tp4674
Rp4675
tp4676
Rp4677
(I01
I00
Ntp4678
bag5
(g6
g7
(g8
((lp4679
F2.9970531463623047
atp4680
Rp4681
I0
(L1L
tp4682
(L1L
tp4683
tp4684
Rp4685
tp4686
Rp4687
(I01
I00
Ntp4688
bag5
(g6
g7
(g8
((lp4689
F2.226041793823242
atp4690
Rp4691
I0
(L1L
tp4692
(L1L
tp4693
tp4694
Rp4695
tp4696
Rp4697
(I01
I00
Ntp4698
bag5
(g6
g7
(g8
((lp4699
F2.3165977001190186
atp4700
Rp4701
I0
(L1L
tp4702
(L1L
tp4703
tp4704
Rp4705
tp4706
Rp4707
(I01
I00
Ntp4708
bag5
(g6
g7
(g8
((lp4709
F2.2777678966522217
atp4710
Rp4711
I0
(L1L
tp4712
(L1L
tp4713
tp4714
Rp4715
tp4716
Rp4717
(I01
I00
Ntp4718
bag5
(g6
g7
(g8
((lp4719
F2.081862449645996
atp4720
Rp4721
I0
(L1L
tp4722
(L1L
tp4723
tp4724
Rp4725
tp4726
Rp4727
(I01
I00
Ntp4728
bag5
(g6
g7
(g8
((lp4729
F2.0678091049194336
atp4730
Rp4731
I0
(L1L
tp4732
(L1L
tp4733
tp4734
Rp4735
tp4736
Rp4737
(I01
I00
Ntp4738
bag5
(g6
g7
(g8
((lp4739
F2.0029404163360596
atp4740
Rp4741
I0
(L1L
tp4742
(L1L
tp4743
tp4744
Rp4745
tp4746
Rp4747
(I01
I00
Ntp4748
bag5
(g6
g7
(g8
((lp4749
F1.8671355247497559
atp4750
Rp4751
I0
(L1L
tp4752
(L1L
tp4753
tp4754
Rp4755
tp4756
Rp4757
(I01
I00
Ntp4758
bag5
(g6
g7
(g8
((lp4759
F2.060926675796509
atp4760
Rp4761
I0
(L1L
tp4762
(L1L
tp4763
tp4764
Rp4765
tp4766
Rp4767
(I01
I00
Ntp4768
bag5
(g6
g7
(g8
((lp4769
F1.9833489656448364
atp4770
Rp4771
I0
(L1L
tp4772
(L1L
tp4773
tp4774
Rp4775
tp4776
Rp4777
(I01
I00
Ntp4778
bag5
(g6
g7
(g8
((lp4779
F2.7387590408325195
atp4780
Rp4781
I0
(L1L
tp4782
(L1L
tp4783
tp4784
Rp4785
tp4786
Rp4787
(I01
I00
Ntp4788
bag5
(g6
g7
(g8
((lp4789
F2.736436128616333
atp4790
Rp4791
I0
(L1L
tp4792
(L1L
tp4793
tp4794
Rp4795
tp4796
Rp4797
(I01
I00
Ntp4798
bag5
(g6
g7
(g8
((lp4799
F2.608111619949341
atp4800
Rp4801
I0
(L1L
tp4802
(L1L
tp4803
tp4804
Rp4805
tp4806
Rp4807
(I01
I00
Ntp4808
bag5
(g6
g7
(g8
((lp4809
F2.6388139724731445
atp4810
Rp4811
I0
(L1L
tp4812
(L1L
tp4813
tp4814
Rp4815
tp4816
Rp4817
(I01
I00
Ntp4818
bag5
(g6
g7
(g8
((lp4819
F2.542720079421997
atp4820
Rp4821
I0
(L1L
tp4822
(L1L
tp4823
tp4824
Rp4825
tp4826
Rp4827
(I01
I00
Ntp4828
bag5
(g6
g7
(g8
((lp4829
F2.5354020595550537
atp4830
Rp4831
I0
(L1L
tp4832
(L1L
tp4833
tp4834
Rp4835
tp4836
Rp4837
(I01
I00
Ntp4838
bag5
(g6
g7
(g8
((lp4839
F2.286325454711914
atp4840
Rp4841
I0
(L1L
tp4842
(L1L
tp4843
tp4844
Rp4845
tp4846
Rp4847
(I01
I00
Ntp4848
bag5
(g6
g7
(g8
((lp4849
F2.3480026721954346
atp4850
Rp4851
I0
(L1L
tp4852
(L1L
tp4853
tp4854
Rp4855
tp4856
Rp4857
(I01
I00
Ntp4858
bag5
(g6
g7
(g8
((lp4859
F2.3849401473999023
atp4860
Rp4861
I0
(L1L
tp4862
(L1L
tp4863
tp4864
Rp4865
tp4866
Rp4867
(I01
I00
Ntp4868
bag5
(g6
g7
(g8
((lp4869
F2.363340377807617
atp4870
Rp4871
I0
(L1L
tp4872
(L1L
tp4873
tp4874
Rp4875
tp4876
Rp4877
(I01
I00
Ntp4878
bag5
(g6
g7
(g8
((lp4879
F2.368021249771118
atp4880
Rp4881
I0
(L1L
tp4882
(L1L
tp4883
tp4884
Rp4885
tp4886
Rp4887
(I01
I00
Ntp4888
bag5
(g6
g7
(g8
((lp4889
F2.307823419570923
atp4890
Rp4891
I0
(L1L
tp4892
(L1L
tp4893
tp4894
Rp4895
tp4896
Rp4897
(I01
I00
Ntp4898
bag5
(g6
g7
(g8
((lp4899
F2.6635985374450684
atp4900
Rp4901
I0
(L1L
tp4902
(L1L
tp4903
tp4904
Rp4905
tp4906
Rp4907
(I01
I00
Ntp4908
bag5
(g6
g7
(g8
((lp4909
F2.6734437942504883
atp4910
Rp4911
I0
(L1L
tp4912
(L1L
tp4913
tp4914
Rp4915
tp4916
Rp4917
(I01
I00
Ntp4918
bag5
(g6
g7
(g8
((lp4919
F2.7336690425872803
atp4920
Rp4921
I0
(L1L
tp4922
(L1L
tp4923
tp4924
Rp4925
tp4926
Rp4927
(I01
I00
Ntp4928
bag5
(g6
g7
(g8
((lp4929
F2.638970375061035
atp4930
Rp4931
I0
(L1L
tp4932
(L1L
tp4933
tp4934
Rp4935
tp4936
Rp4937
(I01
I00
Ntp4938
bag5
(g6
g7
(g8
((lp4939
F2.445739269256592
atp4940
Rp4941
I0
(L1L
tp4942
(L1L
tp4943
tp4944
Rp4945
tp4946
Rp4947
(I01
I00
Ntp4948
bag5
(g6
g7
(g8
((lp4949
F2.4839398860931396
atp4950
Rp4951
I0
(L1L
tp4952
(L1L
tp4953
tp4954
Rp4955
tp4956
Rp4957
(I01
I00
Ntp4958
bag5
(g6
g7
(g8
((lp4959
F2.6065924167633057
atp4960
Rp4961
I0
(L1L
tp4962
(L1L
tp4963
tp4964
Rp4965
tp4966
Rp4967
(I01
I00
Ntp4968
bag5
(g6
g7
(g8
((lp4969
F2.602355718612671
atp4970
Rp4971
I0
(L1L
tp4972
(L1L
tp4973
tp4974
Rp4975
tp4976
Rp4977
(I01
I00
Ntp4978
bag5
(g6
g7
(g8
((lp4979
F2.6321017742156982
atp4980
Rp4981
I0
(L1L
tp4982
(L1L
tp4983
tp4984
Rp4985
tp4986
Rp4987
(I01
I00
Ntp4988
bag5
(g6
g7
(g8
((lp4989
F2.602877616882324
atp4990
Rp4991
I0
(L1L
tp4992
(L1L
tp4993
tp4994
Rp4995
tp4996
Rp4997
(I01
I00
Ntp4998
bag5
(g6
g7
(g8
((lp4999
F2.492032051086426
atp5000
Rp5001
I0
(L1L
tp5002
(L1L
tp5003
tp5004
Rp5005
tp5006
Rp5007
(I01
I00
Ntp5008
bag5
(g6
g7
(g8
((lp5009
F2.5605764389038086
atp5010
Rp5011
I0
(L1L
tp5012
(L1L
tp5013
tp5014
Rp5015
tp5016
Rp5017
(I01
I00
Ntp5018
bag5
(g6
g7
(g8
((lp5019
F2.3744139671325684
atp5020
Rp5021
I0
(L1L
tp5022
(L1L
tp5023
tp5024
Rp5025
tp5026
Rp5027
(I01
I00
Ntp5028
bag5
(g6
g7
(g8
((lp5029
F2.491046905517578
atp5030
Rp5031
I0
(L1L
tp5032
(L1L
tp5033
tp5034
Rp5035
tp5036
Rp5037
(I01
I00
Ntp5038
bag5
(g6
g7
(g8
((lp5039
F2.4729294776916504
atp5040
Rp5041
I0
(L1L
tp5042
(L1L
tp5043
tp5044
Rp5045
tp5046
Rp5047
(I01
I00
Ntp5048
bag5
(g6
g7
(g8
((lp5049
F1.8159576654434204
atp5050
Rp5051
I0
(L1L
tp5052
(L1L
tp5053
tp5054
Rp5055
tp5056
Rp5057
(I01
I00
Ntp5058
bag5
(g6
g7
(g8
((lp5059
F2.2404870986938477
atp5060
Rp5061
I0
(L1L
tp5062
(L1L
tp5063
tp5064
Rp5065
tp5066
Rp5067
(I01
I00
Ntp5068
bag5
(g6
g7
(g8
((lp5069
F2.6627602577209473
atp5070
Rp5071
I0
(L1L
tp5072
(L1L
tp5073
tp5074
Rp5075
tp5076
Rp5077
(I01
I00
Ntp5078
bag5
(g6
g7
(g8
((lp5079
F2.3517026901245117
atp5080
Rp5081
I0
(L1L
tp5082
(L1L
tp5083
tp5084
Rp5085
tp5086
Rp5087
(I01
I00
Ntp5088
bag5
(g6
g7
(g8
((lp5089
F2.461418867111206
atp5090
Rp5091
I0
(L1L
tp5092
(L1L
tp5093
tp5094
Rp5095
tp5096
Rp5097
(I01
I00
Ntp5098
bag5
(g6
g7
(g8
((lp5099
F2.2570900917053223
atp5100
Rp5101
I0
(L1L
tp5102
(L1L
tp5103
tp5104
Rp5105
tp5106
Rp5107
(I01
I00
Ntp5108
bag5
(g6
g7
(g8
((lp5109
F2.4454116821289062
atp5110
Rp5111
I0
(L1L
tp5112
(L1L
tp5113
tp5114
Rp5115
tp5116
Rp5117
(I01
I00
Ntp5118
bag5
(g6
g7
(g8
((lp5119
F2.448897361755371
atp5120
Rp5121
I0
(L1L
tp5122
(L1L
tp5123
tp5124
Rp5125
tp5126
Rp5127
(I01
I00
Ntp5128
bag5
(g6
g7
(g8
((lp5129
F2.541625738143921
atp5130
Rp5131
I0
(L1L
tp5132
(L1L
tp5133
tp5134
Rp5135
tp5136
Rp5137
(I01
I00
Ntp5138
bag5
(g6
g7
(g8
((lp5139
F2.7397704124450684
atp5140
Rp5141
I0
(L1L
tp5142
(L1L
tp5143
tp5144
Rp5145
tp5146
Rp5147
(I01
I00
Ntp5148
bag5
(g6
g7
(g8
((lp5149
F2.786813974380493
atp5150
Rp5151
I0
(L1L
tp5152
(L1L
tp5153
tp5154
Rp5155
tp5156
Rp5157
(I01
I00
Ntp5158
bag5
(g6
g7
(g8
((lp5159
F2.7025160789489746
atp5160
Rp5161
I0
(L1L
tp5162
(L1L
tp5163
tp5164
Rp5165
tp5166
Rp5167
(I01
I00
Ntp5168
bag5
(g6
g7
(g8
((lp5169
F2.925781011581421
atp5170
Rp5171
I0
(L1L
tp5172
(L1L
tp5173
tp5174
Rp5175
tp5176
Rp5177
(I01
I00
Ntp5178
bag5
(g6
g7
(g8
((lp5179
F2.950296640396118
atp5180
Rp5181
I0
(L1L
tp5182
(L1L
tp5183
tp5184
Rp5185
tp5186
Rp5187
(I01
I00
Ntp5188
bag5
(g6
g7
(g8
((lp5189
F3.0063092708587646
atp5190
Rp5191
I0
(L1L
tp5192
(L1L
tp5193
tp5194
Rp5195
tp5196
Rp5197
(I01
I00
Ntp5198
bag5
(g6
g7
(g8
((lp5199
F2.3419899940490723
atp5200
Rp5201
I0
(L1L
tp5202
(L1L
tp5203
tp5204
Rp5205
tp5206
Rp5207
(I01
I00
Ntp5208
bag5
(g6
g7
(g8
((lp5209
F2.40105938911438
atp5210
Rp5211
I0
(L1L
tp5212
(L1L
tp5213
tp5214
Rp5215
tp5216
Rp5217
(I01
I00
Ntp5218
bag5
(g6
g7
(g8
((lp5219
F2.448352575302124
atp5220
Rp5221
I0
(L1L
tp5222
(L1L
tp5223
tp5224
Rp5225
tp5226
Rp5227
(I01
I00
Ntp5228
bag5
(g6
g7
(g8
((lp5229
F2.4809088706970215
atp5230
Rp5231
I0
(L1L
tp5232
(L1L
tp5233
tp5234
Rp5235
tp5236
Rp5237
(I01
I00
Ntp5238
bag5
(g6
g7
(g8
((lp5239
F2.3545081615448
atp5240
Rp5241
I0
(L1L
tp5242
(L1L
tp5243
tp5244
Rp5245
tp5246
Rp5247
(I01
I00
Ntp5248
bag5
(g6
g7
(g8
((lp5249
F2.4967617988586426
atp5250
Rp5251
I0
(L1L
tp5252
(L1L
tp5253
tp5254
Rp5255
tp5256
Rp5257
(I01
I00
Ntp5258
bag5
(g6
g7
(g8
((lp5259
F2.4777839183807373
atp5260
Rp5261
I0
(L1L
tp5262
(L1L
tp5263
tp5264
Rp5265
tp5266
Rp5267
(I01
I00
Ntp5268
bag5
(g6
g7
(g8
((lp5269
F2.511133909225464
atp5270
Rp5271
I0
(L1L
tp5272
(L1L
tp5273
tp5274
Rp5275
tp5276
Rp5277
(I01
I00
Ntp5278
bag5
(g6
g7
(g8
((lp5279
F2.6832494735717773
atp5280
Rp5281
I0
(L1L
tp5282
(L1L
tp5283
tp5284
Rp5285
tp5286
Rp5287
(I01
I00
Ntp5288
bag5
(g6
g7
(g8
((lp5289
F2.604156732559204
atp5290
Rp5291
I0
(L1L
tp5292
(L1L
tp5293
tp5294
Rp5295
tp5296
Rp5297
(I01
I00
Ntp5298
bag5
(g6
g7
(g8
((lp5299
F2.6702542304992676
atp5300
Rp5301
I0
(L1L
tp5302
(L1L
tp5303
tp5304
Rp5305
tp5306
Rp5307
(I01
I00
Ntp5308
bag5
(g6
g7
(g8
((lp5309
F2.6773085594177246
atp5310
Rp5311
I0
(L1L
tp5312
(L1L
tp5313
tp5314
Rp5315
tp5316
Rp5317
(I01
I00
Ntp5318
bag5
(g6
g7
(g8
((lp5319
F2.267611265182495
atp5320
Rp5321
I0
(L1L
tp5322
(L1L
tp5323
tp5324
Rp5325
tp5326
Rp5327
(I01
I00
Ntp5328
bag5
(g6
g7
(g8
((lp5329
F2.217406749725342
atp5330
Rp5331
I0
(L1L
tp5332
(L1L
tp5333
tp5334
Rp5335
tp5336
Rp5337
(I01
I00
Ntp5338
bag5
(g6
g7
(g8
((lp5339
F2.2298264503479004
atp5340
Rp5341
I0
(L1L
tp5342
(L1L
tp5343
tp5344
Rp5345
tp5346
Rp5347
(I01
I00
Ntp5348
bag5
(g6
g7
(g8
((lp5349
F2.174194097518921
atp5350
Rp5351
I0
(L1L
tp5352
(L1L
tp5353
tp5354
Rp5355
tp5356
Rp5357
(I01
I00
Ntp5358
bag5
(g6
g7
(g8
((lp5359
F1.9749765396118164
atp5360
Rp5361
I0
(L1L
tp5362
(L1L
tp5363
tp5364
Rp5365
tp5366
Rp5367
(I01
I00
Ntp5368
bag5
(g6
g7
(g8
((lp5369
F2.200146436691284
atp5370
Rp5371
I0
(L1L
tp5372
(L1L
tp5373
tp5374
Rp5375
tp5376
Rp5377
(I01
I00
Ntp5378
bag5
(g6
g7
(g8
((lp5379
F2.6735892295837402
atp5380
Rp5381
I0
(L1L
tp5382
(L1L
tp5383
tp5384
Rp5385
tp5386
Rp5387
(I01
I00
Ntp5388
bag5
(g6
g7
(g8
((lp5389
F2.5934908390045166
atp5390
Rp5391
I0
(L1L
tp5392
(L1L
tp5393
tp5394
Rp5395
tp5396
Rp5397
(I01
I00
Ntp5398
bag5
(g6
g7
(g8
((lp5399
F2.6376965045928955
atp5400
Rp5401
I0
(L1L
tp5402
(L1L
tp5403
tp5404
Rp5405
tp5406
Rp5407
(I01
I00
Ntp5408
bag5
(g6
g7
(g8
((lp5409
F2.206376791000366
atp5410
Rp5411
I0
(L1L
tp5412
(L1L
tp5413
tp5414
Rp5415
tp5416
Rp5417
(I01
I00
Ntp5418
bag5
(g6
g7
(g8
((lp5419
F2.2583463191986084
atp5420
Rp5421
I0
(L1L
tp5422
(L1L
tp5423
tp5424
Rp5425
tp5426
Rp5427
(I01
I00
Ntp5428
bag5
(g6
g7
(g8
((lp5429
F2.1914498805999756
atp5430
Rp5431
I0
(L1L
tp5432
(L1L
tp5433
tp5434
Rp5435
tp5436
Rp5437
(I01
I00
Ntp5438
bag5
(g6
g7
(g8
((lp5439
F2.0049350261688232
atp5440
Rp5441
I0
(L1L
tp5442
(L1L
tp5443
tp5444
Rp5445
tp5446
Rp5447
(I01
I00
Ntp5448
bag5
(g6
g7
(g8
((lp5449
F1.963547945022583
atp5450
Rp5451
I0
(L1L
tp5452
(L1L
tp5453
tp5454
Rp5455
tp5456
Rp5457
(I01
I00
Ntp5458
bag5
(g6
g7
(g8
((lp5459
F2.0289790630340576
atp5460
Rp5461
I0
(L1L
tp5462
(L1L
tp5463
tp5464
Rp5465
tp5466
Rp5467
(I01
I00
Ntp5468
bag5
(g6
g7
(g8
((lp5469
F2.1005349159240723
atp5470
Rp5471
I0
(L1L
tp5472
(L1L
tp5473
tp5474
Rp5475
tp5476
Rp5477
(I01
I00
Ntp5478
bag5
(g6
g7
(g8
((lp5479
F2.405465602874756
atp5480
Rp5481
I0
(L1L
tp5482
(L1L
tp5483
tp5484
Rp5485
tp5486
Rp5487
(I01
I00
Ntp5488
bag5
(g6
g7
(g8
((lp5489
F2.2644052505493164
atp5490
Rp5491
I0
(L1L
tp5492
(L1L
tp5493
tp5494
Rp5495
tp5496
Rp5497
(I01
I00
Ntp5498
bag5
(g6
g7
(g8
((lp5499
F1.995346188545227
atp5500
Rp5501
I0
(L1L
tp5502
(L1L
tp5503
tp5504
Rp5505
tp5506
Rp5507
(I01
I00
Ntp5508
bag5
(g6
g7
(g8
((lp5509
F2.1114797592163086
atp5510
Rp5511
I0
(L1L
tp5512
(L1L
tp5513
tp5514
Rp5515
tp5516
Rp5517
(I01
I00
Ntp5518
bag5
(g6
g7
(g8
((lp5519
F2.134674310684204
atp5520
Rp5521
I0
(L1L
tp5522
(L1L
tp5523
tp5524
Rp5525
tp5526
Rp5527
(I01
I00
Ntp5528
bag5
(g6
g7
(g8
((lp5529
F2.5635673999786377
atp5530
Rp5531
I0
(L1L
tp5532
(L1L
tp5533
tp5534
Rp5535
tp5536
Rp5537
(I01
I00
Ntp5538
bag5
(g6
g7
(g8
((lp5539
F2.531735420227051
atp5540
Rp5541
I0
(L1L
tp5542
(L1L
tp5543
tp5544
Rp5545
tp5546
Rp5547
(I01
I00
Ntp5548
bag5
(g6
g7
(g8
((lp5549
F2.694979667663574
atp5550
Rp5551
I0
(L1L
tp5552
(L1L
tp5553
tp5554
Rp5555
tp5556
Rp5557
(I01
I00
Ntp5558
bag5
(g6
g7
(g8
((lp5559
F2.3750290870666504
atp5560
Rp5561
I0
(L1L
tp5562
(L1L
tp5563
tp5564
Rp5565
tp5566
Rp5567
(I01
I00
Ntp5568
bag5
(g6
g7
(g8
((lp5569
F2.524991035461426
atp5570
Rp5571
I0
(L1L
tp5572
(L1L
tp5573
tp5574
Rp5575
tp5576
Rp5577
(I01
I00
Ntp5578
bag5
(g6
g7
(g8
((lp5579
F2.5154805183410645
atp5580
Rp5581
I0
(L1L
tp5582
(L1L
tp5583
tp5584
Rp5585
tp5586
Rp5587
(I01
I00
Ntp5588
bag5
(g6
g7
(g8
((lp5589
F2.3747718334198
atp5590
Rp5591
I0
(L1L
tp5592
(L1L
tp5593
tp5594
Rp5595
tp5596
Rp5597
(I01
I00
Ntp5598
bag5
(g6
g7
(g8
((lp5599
F2.3766868114471436
atp5600
Rp5601
I0
(L1L
tp5602
(L1L
tp5603
tp5604
Rp5605
tp5606
Rp5607
(I01
I00
Ntp5608
bag5
(g6
g7
(g8
((lp5609
F2.2765378952026367
atp5610
Rp5611
I0
(L1L
tp5612
(L1L
tp5613
tp5614
Rp5615
tp5616
Rp5617
(I01
I00
Ntp5618
bag5
(g6
g7
(g8
((lp5619
F2.3264546394348145
atp5620
Rp5621
I0
(L1L
tp5622
(L1L
tp5623
tp5624
Rp5625
tp5626
Rp5627
(I01
I00
Ntp5628
bag5
(g6
g7
(g8
((lp5629
F2.290192127227783
atp5630
Rp5631
I0
(L1L
tp5632
(L1L
tp5633
tp5634
Rp5635
tp5636
Rp5637
(I01
I00
Ntp5638
bag5
(g6
g7
(g8
((lp5639
F2.41324782371521
atp5640
Rp5641
I0
(L1L
tp5642
(L1L
tp5643
tp5644
Rp5645
tp5646
Rp5647
(I01
I00
Ntp5648
bag5
(g6
g7
(g8
((lp5649
F3.0105507373809814
atp5650
Rp5651
I0
(L1L
tp5652
(L1L
tp5653
tp5654
Rp5655
tp5656
Rp5657
(I01
I00
Ntp5658
bag5
(g6
g7
(g8
((lp5659
F3.096130609512329
atp5660
Rp5661
I0
(L1L
tp5662
(L1L
tp5663
tp5664
Rp5665
tp5666
Rp5667
(I01
I00
Ntp5668
bag5
(g6
g7
(g8
((lp5669
F3.1260461807250977
atp5670
Rp5671
I0
(L1L
tp5672
(L1L
tp5673
tp5674
Rp5675
tp5676
Rp5677
(I01
I00
Ntp5678
bag5
(g6
g7
(g8
((lp5679
F2.3815762996673584
atp5680
Rp5681
I0
(L1L
tp5682
(L1L
tp5683
tp5684
Rp5685
tp5686
Rp5687
(I01
I00
Ntp5688
bag5
(g6
g7
(g8
((lp5689
F2.4372048377990723
atp5690
Rp5691
I0
(L1L
tp5692
(L1L
tp5693
tp5694
Rp5695
tp5696
Rp5697
(I01
I00
Ntp5698
bag5
(g6
g7
(g8
((lp5699
F2.440054178237915
atp5700
Rp5701
I0
(L1L
tp5702
(L1L
tp5703
tp5704
Rp5705
tp5706
Rp5707
(I01
I00
Ntp5708
bag5
(g6
g7
(g8
((lp5709
F2.0627403259277344
atp5710
Rp5711
I0
(L1L
tp5712
(L1L
tp5713
tp5714
Rp5715
tp5716
Rp5717
(I01
I00
Ntp5718
bag5
(g6
g7
(g8
((lp5719
F2.029937505722046
atp5720
Rp5721
I0
(L1L
tp5722
(L1L
tp5723
tp5724
Rp5725
tp5726
Rp5727
(I01
I00
Ntp5728
bag5
(g6
g7
(g8
((lp5729
F2.0777602195739746
atp5730
Rp5731
I0
(L1L
tp5732
(L1L
tp5733
tp5734
Rp5735
tp5736
Rp5737
(I01
I00
Ntp5738
bag5
(g6
g7
(g8
((lp5739
F1.9292633533477783
atp5740
Rp5741
I0
(L1L
tp5742
(L1L
tp5743
tp5744
Rp5745
tp5746
Rp5747
(I01
I00
Ntp5748
bag5
(g6
g7
(g8
((lp5749
F2.095024824142456
atp5750
Rp5751
I0
(L1L
tp5752
(L1L
tp5753
tp5754
Rp5755
tp5756
Rp5757
(I01
I00
Ntp5758
bag5
(g6
g7
(g8
((lp5759
F1.883315086364746
atp5760
Rp5761
I0
(L1L
tp5762
(L1L
tp5763
tp5764
Rp5765
tp5766
Rp5767
(I01
I00
Ntp5768
bag5
(g6
g7
(g8
((lp5769
F2.7106947898864746
atp5770
Rp5771
I0
(L1L
tp5772
(L1L
tp5773
tp5774
Rp5775
tp5776
Rp5777
(I01
I00
Ntp5778
bag5
(g6
g7
(g8
((lp5779
F2.7456166744232178
atp5780
Rp5781
I0
(L1L
tp5782
(L1L
tp5783
tp5784
Rp5785
tp5786
Rp5787
(I01
I00
Ntp5788
bag5
(g6
g7
(g8
((lp5789
F2.7726526260375977
atp5790
Rp5791
I0
(L1L
tp5792
(L1L
tp5793
tp5794
Rp5795
tp5796
Rp5797
(I01
I00
Ntp5798
bag5
(g6
g7
(g8
((lp5799
F2.655609130859375
atp5800
Rp5801
I0
(L1L
tp5802
(L1L
tp5803
tp5804
Rp5805
tp5806
Rp5807
(I01
I00
Ntp5808
bag5
(g6
g7
(g8
((lp5809
F2.7958686351776123
atp5810
Rp5811
I0
(L1L
tp5812
(L1L
tp5813
tp5814
Rp5815
tp5816
Rp5817
(I01
I00
Ntp5818
bag5
(g6
g7
(g8
((lp5819
F2.661787986755371
atp5820
Rp5821
I0
(L1L
tp5822
(L1L
tp5823
tp5824
Rp5825
tp5826
Rp5827
(I01
I00
Ntp5828
bag5
(g6
g7
(g8
((lp5829
F2.379173517227173
atp5830
Rp5831
I0
(L1L
tp5832
(L1L
tp5833
tp5834
Rp5835
tp5836
Rp5837
(I01
I00
Ntp5838
bag5
(g6
g7
(g8
((lp5839
F2.315124273300171
atp5840
Rp5841
I0
(L1L
tp5842
(L1L
tp5843
tp5844
Rp5845
tp5846
Rp5847
(I01
I00
Ntp5848
bag5
(g6
g7
(g8
((lp5849
F2.560762882232666
atp5850
Rp5851
I0
(L1L
tp5852
(L1L
tp5853
tp5854
Rp5855
tp5856
Rp5857
(I01
I00
Ntp5858
bag5
(g6
g7
(g8
((lp5859
F2.615109443664551
atp5860
Rp5861
I0
(L1L
tp5862
(L1L
tp5863
tp5864
Rp5865
tp5866
Rp5867
(I01
I00
Ntp5868
bag5
(g6
g7
(g8
((lp5869
F2.743346929550171
atp5870
Rp5871
I0
(L1L
tp5872
(L1L
tp5873
tp5874
Rp5875
tp5876
Rp5877
(I01
I00
Ntp5878
bag5
(g6
g7
(g8
((lp5879
F2.6690866947174072
atp5880
Rp5881
I0
(L1L
tp5882
(L1L
tp5883
tp5884
Rp5885
tp5886
Rp5887
(I01
I00
Ntp5888
bag5
(g6
g7
(g8
((lp5889
F2.5852410793304443
atp5890
Rp5891
I0
(L1L
tp5892
(L1L
tp5893
tp5894
Rp5895
tp5896
Rp5897
(I01
I00
Ntp5898
bag5
(g6
g7
(g8
((lp5899
F2.5288503170013428
atp5900
Rp5901
I0
(L1L
tp5902
(L1L
tp5903
tp5904
Rp5905
tp5906
Rp5907
(I01
I00
Ntp5908
bag5
(g6
g7
(g8
((lp5909
F2.507460832595825
atp5910
Rp5911
I0
(L1L
tp5912
(L1L
tp5913
tp5914
Rp5915
tp5916
Rp5917
(I01
I00
Ntp5918
bag5
(g6
g7
(g8
((lp5919
F2.123729944229126
atp5920
Rp5921
I0
(L1L
tp5922
(L1L
tp5923
tp5924
Rp5925
tp5926
Rp5927
(I01
I00
Ntp5928
bag5
(g6
g7
(g8
((lp5929
F1.9579910039901733
atp5930
Rp5931
I0
(L1L
tp5932
(L1L
tp5933
tp5934
Rp5935
tp5936
Rp5937
(I01
I00
Ntp5938
bag5
(g6
g7
(g8
((lp5939
F1.9094318151474
atp5940
Rp5941
I0
(L1L
tp5942
(L1L
tp5943
tp5944
Rp5945
tp5946
Rp5947
(I01
I00
Ntp5948
bag5
(g6
g7
(g8
((lp5949
F2.3470962047576904
atp5950
Rp5951
I0
(L1L
tp5952
(L1L
tp5953
tp5954
Rp5955
tp5956
Rp5957
(I01
I00
Ntp5958
bag5
(g6
g7
(g8
((lp5959
F2.4328227043151855
atp5960
Rp5961
I0
(L1L
tp5962
(L1L
tp5963
tp5964
Rp5965
tp5966
Rp5967
(I01
I00
Ntp5968
bag5
(g6
g7
(g8
((lp5969
F2.294461965560913
atp5970
Rp5971
I0
(L1L
tp5972
(L1L
tp5973
tp5974
Rp5975
tp5976
Rp5977
(I01
I00
Ntp5978
bag5
(g6
g7
(g8
((lp5979
F2.879765033721924
atp5980
Rp5981
I0
(L1L
tp5982
(L1L
tp5983
tp5984
Rp5985
tp5986
Rp5987
(I01
I00
Ntp5988
bag5
(g6
g7
(g8
((lp5989
F2.8799521923065186
atp5990
Rp5991
I0
(L1L
tp5992
(L1L
tp5993
tp5994
Rp5995
tp5996
Rp5997
(I01
I00
Ntp5998
bag5
(g6
g7
(g8
((lp5999
F2.8038556575775146
atp6000
Rp6001
I0
(L1L
tp6002
(L1L
tp6003
tp6004
Rp6005
tp6006
Rp6007
(I01
I00
Ntp6008
baag4
ag4
asS'D_loss'
p6009
(lp6010
F0.048237960785627365
aF0.06367161870002747
aF0.07233494520187378
aF0.04063672199845314
aF0.12075844407081604
aF0.095288947224617
aF0.32722628116607666
aF0.04084489867091179
aF0.1582058072090149
aF0.155235156416893
aF0.10691236704587936
aF0.049953605979681015
aF0.12304861843585968
aF0.16781355440616608
aF0.15370038151741028
aF0.057735882699489594
aF0.09447740763425827
aF0.18092268705368042
aF0.1875031441450119
aF0.32865142822265625
aF0.20244157314300537
aF0.06763147562742233
aF0.7071787714958191
aF0.23853075504302979
aF0.13742296397686005
aF0.17252856492996216
aF0.2823321223258972
aF0.4082276523113251
aF0.26971563696861267
aF0.19161510467529297
aF0.21452867984771729
aF0.29062387347221375
aF0.4321742653846741
aF0.3747379779815674
aF0.24949374794960022
aF0.23967909812927246
aF0.5137245059013367
aF0.25373902916908264
aF0.40210187435150146
aF0.326018363237381
aF0.33398738503456116
aF0.2765212953090668
aF0.5241420269012451
aF0.35335397720336914
aF0.264774888753891
aF0.2542090117931366
aF0.3982733190059662
aF0.190996915102005
aF0.22221268713474274
aF0.312608540058136
aF0.21954983472824097
aF0.36911875009536743
aF0.4035121500492096
aF0.21285216510295868
aF0.46803078055381775
aF0.2438412308692932
aF0.4047267436981201
aF0.19264373183250427
aF0.54625403881073
aF0.41357821226119995
aF0.3017066717147827
aF0.2936142683029175
aF0.2084612101316452
aF0.24498283863067627
aF0.39448678493499756
aF0.28387635946273804
aF0.23930837213993073
aF0.3268754780292511
aF0.2846406102180481
aF0.23338688910007477
aF0.37718451023101807
aF0.2525426149368286
aF0.3899393677711487
aF0.2800025939941406
aF0.2065434753894806
aF0.45090463757514954
aF0.3251993656158447
aF0.41575056314468384
aF0.3308691680431366
aF0.25403380393981934
aF0.187293142080307
aF0.31857672333717346
aF0.2812834680080414
aF0.22148644924163818
aF0.3644980788230896
aF0.46726781129837036
aF0.3836521506309509
aF0.3733893036842346
aF0.2752056121826172
aF0.3612351417541504
aF0.328826367855072
aF0.3635459542274475
aF0.4449828267097473
aF0.474798321723938
aF0.3770920932292938
aF0.44219493865966797
aF0.5409178733825684
aF0.4181073307991028
aF0.4206363260746002
aF0.24959473311901093
aF0.29320600628852844
aF0.5398277044296265
aF0.40050435066223145
aF0.29815933108329773
aF0.2677417993545532
aF0.35896986722946167
aF0.27759242057800293
aF0.434760719537735
aF0.3322926163673401
aF0.4192003607749939
aF0.23461255431175232
aF0.22348082065582275
aF0.35359814763069153
aF0.45883476734161377
aF0.2922024428844452
aF0.2885667085647583
aF0.36021387577056885
aF0.27670156955718994
aF0.36001408100128174
aF0.3014775216579437
aF0.3945481479167938
aF0.2340404987335205
aF0.39857763051986694
aF0.40098994970321655
aF0.38550323247909546
aF0.3087489604949951
aF0.3211340606212616
aF0.3413236439228058
aF0.46371760964393616
aF0.3878670036792755
aF0.3572470545768738
aF0.4620040953159332
aF0.39989861845970154
aF0.31158673763275146
aF0.3572703003883362
aF0.5019269585609436
aF0.48761114478111267
aF0.2994536757469177
aF0.4882217347621918
aF0.5332869291305542
aF0.3888658583164215
aF0.5821930766105652
aF0.3061624765396118
aF0.3559609353542328
aF0.39767318964004517
aF0.3219478130340576
aF0.4642942547798157
aF0.30726325511932373
aF0.31666749715805054
aF0.412162721157074
aF0.3698500990867615
aF0.4559984803199768
aF0.4058864712715149
aF0.38173016905784607
aF0.3493337035179138
aF0.326337605714798
aF0.36722707748413086
aF0.3829105496406555
aF0.38940200209617615
aF0.295968234539032
aF0.3171694278717041
aF0.42442744970321655
aF0.3525954782962799
aF0.33006614446640015
aF0.40871143341064453
aF0.30324870347976685
aF0.3802299499511719
aF0.3206927180290222
aF0.2580327093601227
aF0.41848015785217285
aF0.3961799442768097
aF0.4304528832435608
aF0.28482452034950256
aF0.27453848719596863
aF0.39690494537353516
aF0.4282042980194092
aF0.3489410877227783
aF0.39877790212631226
aF0.3173257112503052
aF0.38949596881866455
aF0.36588817834854126
aF0.3934709131717682
aF0.391656756401062
aF0.47086578607559204
aF0.2535167336463928
aF0.3573521077632904
aF0.45906710624694824
aF0.42216646671295166
aF0.3952905535697937
aF0.38196730613708496
aF0.4836755394935608
aF0.40637123584747314
aF0.29735979437828064
aF0.3899003863334656
aF0.42004984617233276
aF0.3073042035102844
aF0.3287001848220825
aF0.402312695980072
aF0.402893602848053
aF0.38759589195251465
asS'G_loss'
p6011
(lp6012
F7.2707343101501465
aF4.2093329429626465
aF4.475424289703369
aF4.135138034820557
aF1.5245003700256348
aF3.796206474304199
aF6.972722053527832
aF7.033538818359375
aF5.104979038238525
aF6.126898765563965
aF9.129836082458496
aF5.994284152984619
aF4.045510292053223
aF3.6490225791931152
aF5.1628875732421875
aF9.899645805358887
aF7.546571731567383
aF5.654778003692627
aF5.179487228393555
aF5.23336935043335
aF4.5179948806762695
aF6.825572490692139
aF5.5591840744018555
aF4.41302490234375
aF3.053445816040039
aF5.204964637756348
aF3.6859514713287354
aF5.9505133628845215
aF6.742269515991211
aF4.192295074462891
aF3.5334725379943848
aF3.313882827758789
aF2.3024330139160156
aF3.332042932510376
aF3.7699592113494873
aF3.8057403564453125
aF2.8304848670959473
aF5.006408214569092
aF1.3284516334533691
aF3.3436527252197266
aF3.4948034286499023
aF3.2988836765289307
aF1.855485439300537
aF2.1038596630096436
aF2.37673020362854
aF4.798548221588135
aF2.7865371704101562
aF3.100419282913208
aF2.884965419769287
aF3.104614019393921
aF5.547586441040039
aF2.496788740158081
aF3.6192734241485596
aF2.955313205718994
aF5.080280780792236
aF3.8950536251068115
aF2.4701366424560547
aF3.348780632019043
aF1.8456006050109863
aF3.7892656326293945
aF2.061293601989746
aF4.272317886352539
aF3.6049129962921143
aF2.582810163497925
aF2.4692909717559814
aF3.37846040725708
aF3.2493157386779785
aF2.1873815059661865
aF3.899517297744751
aF3.8087096214294434
aF2.6850357055664062
aF3.6959316730499268
aF3.2873480319976807
aF4.474245071411133
aF4.482604503631592
aF2.5175604820251465
aF3.7008190155029297
aF2.522094488143921
aF2.0707225799560547
aF2.5605218410491943
aF4.262340545654297
aF2.7868335247039795
aF3.2246694564819336
aF3.418421983718872
aF2.8940324783325195
aF1.821800708770752
aF2.506969451904297
aF2.3556606769561768
aF2.96337890625
aF2.32725191116333
aF1.8967517614364624
aF2.2842392921447754
aF1.7964634895324707
aF2.3098130226135254
aF2.7634410858154297
aF3.1731514930725098
aF2.9373831748962402
aF2.295034408569336
aF2.189272880554199
aF3.2836005687713623
aF2.694101572036743
aF2.3370282649993896
aF2.7637581825256348
aF2.2370798587799072
aF2.4857215881347656
aF2.2471299171447754
aF2.6703708171844482
aF2.213566780090332
aF2.6509923934936523
aF2.556466817855835
aF2.9034390449523926
aF2.7554433345794678
aF3.1602623462677
aF2.914935350418091
aF2.9090182781219482
aF3.414686918258667
aF2.2013280391693115
aF2.8293585777282715
aF2.067065477371216
aF2.320044994354248
aF2.4606027603149414
aF3.694303274154663
aF2.7148313522338867
aF2.4942426681518555
aF2.7375051975250244
aF2.4496655464172363
aF3.097058057785034
aF2.483701467514038
aF1.6364980936050415
aF1.8592981100082397
aF2.1790904998779297
aF2.407470941543579
aF2.6541178226470947
aF2.702669382095337
aF2.6662344932556152
aF1.9925891160964966
aF2.2813544273376465
aF2.534001588821411
aF2.363208532333374
aF2.213503360748291
aF2.5665183067321777
aF2.075111150741577
aF2.4860546588897705
aF2.465391159057617
aF2.173776149749756
aF2.2262887954711914
aF2.409031391143799
aF2.680753231048584
aF2.8537793159484863
aF2.4529759883880615
aF2.3553388118743896
aF2.3069357872009277
aF2.5461585521698
aF2.499342441558838
aF2.3805930614471436
aF2.9970531463623047
aF2.2777678966522217
aF2.0029404163360596
aF1.9833489656448364
aF2.608111619949341
aF2.5354020595550537
aF2.3849401473999023
aF2.307823419570923
aF2.7336690425872803
aF2.4839398860931396
aF2.6321017742156982
aF2.5605764389038086
aF2.4729294776916504
aF2.6627602577209473
aF2.2570900917053223
aF2.541625738143921
aF2.7025160789489746
aF3.0063092708587646
aF2.448352575302124
aF2.4967617988586426
aF2.6832494735717773
aF2.6773085594177246
aF2.2298264503479004
aF2.200146436691284
aF2.6376965045928955
aF2.1914498805999756
aF2.0289790630340576
aF2.2644052505493164
aF2.134674310684204
aF2.694979667663574
aF2.5154805183410645
aF2.2765378952026367
aF2.41324782371521
aF3.1260461807250977
aF2.440054178237915
aF2.0777602195739746
aF1.883315086364746
aF2.7726526260375977
aF2.661787986755371
aF2.560762882232666
aF2.6690866947174072
aF2.507460832595825
aF1.9094318151474
aF2.294461965560913
aF2.8038556575775146
asb.