(i__main__
LossModule
p0
(dp1
S'Many_G_loss'
p2
(lp3
(lp4
ag4
ag4
ag4
ag4
ag4
ag4
ag4
ag4
asS'D_loss'
p5
(lp6
F0.3893072009086609
aF0.07482059299945831
aF0.193528950214386
aF0.554624617099762
aF0.8602967262268066
aF0.2743454873561859
aF0.43484169244766235
aF0.22711405158042908
aF0.32435497641563416
aF0.3345526456832886
aF0.867196261882782
aF0.361985981464386
aF0.34589987993240356
aF0.3014082908630371
aF0.49165207147598267
aF0.323119580745697
aF0.3023093342781067
aF0.2326180338859558
aF0.13746440410614014
aF0.11788471043109894
aF0.0895334854722023
aF0.23126065731048584
aF0.15966275334358215
aF0.26416176557540894
aF0.11372680962085724
aF0.22126518189907074
aF0.10774268209934235
aF0.27429041266441345
aF0.16886013746261597
aF0.2624681293964386
aF0.2197115272283554
aF0.2368851900100708
aF0.3341771364212036
aF0.12490101158618927
aF0.19532151520252228
aF0.03213676065206528
aF0.07548002153635025
aF0.14012910425662994
aF0.2039170265197754
aF0.15810105204582214
aF0.13945657014846802
aF0.15426647663116455
aF0.2380136400461197
aF0.22217583656311035
aF0.2974458634853363
aF0.21970002353191376
aF0.4955253005027771
aF0.34752100706100464
aF0.3244496285915375
aF0.38462936878204346
aF0.3108612298965454
aF0.25452548265457153
aF0.3140776455402374
aF0.32114672660827637
aF0.26924654841423035
aF0.25879111886024475
aF0.27343860268592834
aF0.34489986300468445
aF0.18680748343467712
aF0.31309229135513306
aF0.248351588845253
aF0.4594820439815521
aF0.33377566933631897
aF0.3517210781574249
aF0.30534204840660095
aF0.28762727975845337
aF0.3247668147087097
aF0.28910553455352783
aF0.2598028779029846
aF0.3703540563583374
aF0.1966698169708252
aF0.38030558824539185
aF0.2739720344543457
aF0.15006157755851746
aF0.22686782479286194
aF0.303680956363678
aF0.25674670934677124
aF0.202862948179245
aF0.28903698921203613
aF0.308371365070343
aF0.20447461307048798
aF0.18476320803165436
aF0.3754032552242279
aF0.40605080127716064
aF0.28435614705085754
aF0.2545217275619507
aF0.28481215238571167
aF0.23958784341812134
aF0.2729640007019043
aF0.22407585382461548
aF0.21574601531028748
aF0.34258773922920227
aF0.20253030955791473
aF0.3042447865009308
aF0.39604562520980835
aF0.30582550168037415
aF0.2989916205406189
aF0.38101810216903687
aF0.28767096996307373
aF0.4048241078853607
aF0.23813596367835999
aF0.24885053932666779
aF0.3161761462688446
aF0.21696050465106964
aF0.20882484316825867
aF0.3343549966812134
aF0.2629726827144623
aF0.36614787578582764
aF0.3108897805213928
aF0.3223485052585602
aF0.37588560581207275
aF0.43556860089302063
aF0.33202284574508667
aF0.3794843554496765
aF0.27212053537368774
aF0.3836315870285034
aF0.26266974210739136
aF0.4481860101222992
aF0.3408181667327881
aF0.2572402358055115
aF0.28615686297416687
aF0.2794732451438904
aF0.24021382629871368
aF0.37393343448638916
aF0.4095352292060852
aF0.390800416469574
aF0.3228759765625
aF0.4483381509780884
aF0.4728800356388092
aF0.30624639987945557
aF0.2861650288105011
aF0.3491098880767822
aF0.3668448328971863
aF0.43044745922088623
aF0.3719579577445984
aF0.48459506034851074
aF0.4465494751930237
aF0.5341892242431641
aF0.3759671151638031
aF0.44560378789901733
aF0.44686079025268555
aF0.41744333505630493
aF0.6206256747245789
aF0.6490821838378906
aF0.2724062204360962
aF0.40539848804473877
aF0.5219483375549316
aF0.5084247589111328
aF0.6405730247497559
aF0.4719846248626709
aF0.8368278741836548
aF0.4771302044391632
aF0.4056379795074463
aF0.5427957773208618
aF0.5155560374259949
aF0.3409488797187805
aF0.4451415240764618
aF0.35186678171157837
aF0.4988360106945038
aF0.3799746036529541
aF0.329784095287323
aF0.5306961536407471
aF0.399394690990448
aF0.6054942607879639
aF0.42132312059402466
aF0.38960903882980347
aF0.686274528503418
aF0.630233645439148
aF0.5264511108398438
aF0.6346659660339355
aF0.4626559019088745
aF0.5421290397644043
aF0.5372205376625061
aF0.6663429737091064
aF0.4695895314216614
aF0.5665991306304932
aF0.56131911277771
aF0.5090031623840332
aF0.8095620274543762
aF0.5074282288551331
aF0.6139994859695435
aF0.6228225827217102
aF0.5903279781341553
aF0.6852066516876221
aF0.5460108518600464
aF0.648970901966095
aF0.5288209915161133
aF0.6183844804763794
aF0.5373169183731079
aF0.6506978273391724
aF0.8404238224029541
aF0.6539624929428101
aF0.7116910815238953
aF0.7331665754318237
aF0.6553201675415039
aF0.7672381401062012
aF0.6996031403541565
aF0.6870852708816528
aF0.6498762369155884
aF0.7060346007347107
asS'G_loss'
p7
(lp8
F1.9309988021850586
aF3.8234119415283203
aF3.2893428802490234
aF2.202869415283203
aF1.4227294921875
aF2.6072282791137695
aF2.2939655780792236
aF0.5069923400878906
aF0.6070910692214966
aF1.3090579509735107
aF3.315078020095825
aF3.0774402618408203
aF3.1893248558044434
aF3.18203067779541
aF0.732759416103363
aF0.6460770964622498
aF0.9771360754966736
aF0.5742372274398804
aF1.333348274230957
aF0.9362667202949524
aF1.5387754440307617
aF0.09699170291423798
aF0.804767370223999
aF0.47430968284606934
aF0.7816434502601624
aF1.051397681236267
aF0.5593326091766357
aF0.6112068891525269
aF0.4424092769622803
aF4.918467044830322
aF0.21283379197120667
aF2.5029587745666504
aF2.5245156288146973
aF1.7664440870285034
aF1.1192562580108643
aF2.8665285110473633
aF1.6499055624008179
aF0.2580541670322418
aF3.966993808746338
aF1.1963859796524048
aF1.6987429857254028
aF3.0271897315979004
aF5.119940757751465
aF1.8670096397399902
aF1.9937325716018677
aF0.2543594241142273
aF0.3899548053741455
aF2.1542770862579346
aF0.6402743458747864
aF1.13065505027771
aF0.7280986309051514
aF0.9728474617004395
aF3.969630241394043
aF0.28645455837249756
aF2.9651269912719727
aF0.3880559504032135
aF4.079293727874756
aF0.02857367694377899
aF3.853870153427124
aF1.975534200668335
aF0.6177717447280884
aF0.0007027339888736606
aF4.872860431671143
aF0.6269033551216125
aF0.8764869570732117
aF1.370475172996521
aF0.4915347397327423
aF0.03224902227520943
aF0.3150130808353424
aF1.3587307929992676
aF0.09996788203716278
aF0.0013581824023276567
aF3.517916202545166
aF0.533333420753479
aF0.5558118224143982
aF0.0762525275349617
aF0.171502947807312
aF3.710899591445923
aF0.33532145619392395
aF0.302358478307724
aF0.022553496062755585
aF0.9880305528640747
aF0.18738418817520142
aF0.47194167971611023
aF4.219940662384033
aF0.5882887840270996
aF0.5679989457130432
aF0.5249422192573547
aF0.03105999529361725
aF3.9148285388946533
aF0.521994411945343
aF0.09331484138965607
aF0.3025801181793213
aF0.02238689363002777
aF0.2174978405237198
aF0.21986114978790283
aF0.32693997025489807
aF0.3157774806022644
aF0.4554043114185333
aF0.2441202700138092
aF0.5042368769645691
aF0.7212815880775452
aF0.1432148814201355
aF0.9764087200164795
aF0.171128049492836
aF0.1255890280008316
aF0.6590781211853027
aF4.027653694152832
aF0.4591253697872162
aF0.49932995438575745
aF0.5817034840583801
aF0.9696481227874756
aF0.1908033937215805
aF0.05655793100595474
aF0.3608057498931885
aF0.33225250244140625
aF0.11105982959270477
aF1.5710093975067139
aF0.4075891077518463
aF0.3191911578178406
aF3.318373441696167
aF0.18698637187480927
aF0.702131450176239
aF0.06788548082113266
aF1.0185476541519165
aF0.17527800798416138
aF0.16488182544708252
aF2.879060745239258
aF0.4570043981075287
aF3.7809274196624756
aF0.05253932997584343
aF0.3590128719806671
aF0.16917741298675537
aF0.21593837440013885
aF0.20290035009384155
aF0.09720861166715622
aF0.0354149304330349
aF3.7249655723571777
aF1.4056962728500366
aF0.5654350519180298
aF0.3975166380405426
aF0.2788604199886322
aF0.24551202356815338
aF2.832632064819336
aF0.267121285200119
aF3.541187047958374
aF0.7852033972740173
aF0.7350673675537109
aF0.8077331781387329
aF1.7574424743652344
aF0.3931267559528351
aF0.5362995266914368
aF1.136355996131897
aF0.9154678583145142
aF0.21785612404346466
aF0.22661875188350677
aF3.6019773483276367
aF0.3319716155529022
aF0.1499784290790558
aF3.0267333984375
aF0.1642378866672516
aF0.43852412700653076
aF1.3892728090286255
aF1.0640316009521484
aF2.4630048274993896
aF1.6721283197402954
aF1.0674827098846436
aF0.802040696144104
aF1.7067300081253052
aF0.7517297267913818
aF1.4141098260879517
aF1.049344778060913
aF0.5336067080497742
aF1.861536979675293
aF2.0583138465881348
aF1.2831311225891113
aF2.6442346572875977
aF1.2839480638504028
aF2.0494132041931152
aF1.0331640243530273
aF1.650680661201477
aF1.5418920516967773
aF1.0810515880584717
aF2.3195748329162598
aF1.2510777711868286
aF1.5720245838165283
aF2.065479040145874
aF1.9082504510879517
aF1.8972022533416748
aF1.8925126791000366
aF1.7912019491195679
aF2.0019006729125977
aF1.3115772008895874
aF2.2784273624420166
aF1.7343833446502686
aF0.9892628192901611
aF1.6652837991714478
aF1.4921194314956665
aF1.6906557083129883
aF1.6163108348846436
asb.