(i__main__
LossModule
p0
(dp1
S'Many_G_loss'
p2
(lp3
(lp4
ag4
ag4
ag4
asS'D_loss'
p5
(lp6
F0.0012353016063570976
aF0.06397859007120132
aF0.08038517832756042
aF0.19875457882881165
aF1.0681381225585938
aF0.050072669982910156
aF0.060185931622982025
aF0.13941963016986847
aF0.06625326722860336
aF0.1858464628458023
aF0.21478873491287231
aF0.2998780310153961
aF0.05228734016418457
aF0.04082106798887253
aF0.29698359966278076
aF0.067436084151268
aF0.08954903483390808
aF0.03470027819275856
aF0.19309008121490479
aF0.16478002071380615
aF0.17145109176635742
aF0.25107911229133606
aF0.2369673252105713
aF0.10847966372966766
aF0.16126729547977448
aF0.27195608615875244
aF0.23507530987262726
aF0.25872737169265747
aF0.24887946248054504
aF0.1330956667661667
aF0.34712111949920654
aF0.32328373193740845
aF0.2414533644914627
aF0.42482900619506836
aF0.2637622058391571
aF0.2184140682220459
aF0.243305966258049
aF0.44393497705459595
aF0.2554585933685303
aF0.38566121459007263
aF0.4048919677734375
aF0.3731788694858551
aF0.37336888909339905
aF0.36109620332717896
aF0.33561187982559204
aF0.37124624848365784
aF0.2647579610347748
aF0.48294195532798767
aF0.3801364302635193
aF0.5193731188774109
aF0.3793920576572418
aF0.4425516426563263
aF0.368252158164978
aF0.4561712443828583
aF0.3808964490890503
aF0.298392117023468
aF0.43314993381500244
aF0.4570395350456238
aF0.3720983862876892
aF0.2713790833950043
aF0.2917136549949646
aF0.3003714680671692
aF0.4480384290218353
aF0.3926877975463867
aF0.28103670477867126
aF0.5116574168205261
aF0.4002181887626648
aF0.3705974221229553
aF0.40413838624954224
aF0.4100513458251953
aF0.3284692168235779
aF0.33717185258865356
aF0.23888903856277466
aF0.3430279493331909
aF0.28987249732017517
aF0.3938505947589874
aF0.37008804082870483
aF0.339528352022171
aF0.3496270775794983
aF0.2772772014141083
aF0.23462072014808655
aF0.3188312351703644
aF0.30744507908821106
aF0.36548855900764465
aF0.3726651072502136
aF0.3739357888698578
aF0.5131059288978577
aF0.31774628162384033
aF0.3678070306777954
aF0.43085744976997375
aF0.29703882336616516
aF0.35604339838027954
aF0.31122028827667236
aF0.45111948251724243
aF0.28637292981147766
aF0.32329195737838745
aF0.45252612233161926
aF0.37586987018585205
aF0.4246869683265686
aF0.41174381971359253
aF0.29280364513397217
aF0.32072487473487854
aF0.5286994576454163
aF0.4577800929546356
aF0.29556238651275635
aF0.4194726049900055
aF0.3178309202194214
aF0.4310787618160248
aF0.32321327924728394
aF0.40428197383880615
aF0.32618799805641174
aF0.32776886224746704
aF0.33891570568084717
aF0.4243854284286499
aF0.48176923394203186
aF0.329231321811676
aF0.5142385959625244
aF0.33420854806900024
aF0.5347682237625122
aF0.4643637537956238
aF0.2908666133880615
aF0.4396633505821228
aF0.4365426003932953
aF0.48692065477371216
aF0.38040247559547424
aF0.4519999027252197
aF0.3643670976161957
aF0.3006812036037445
aF0.35831594467163086
aF0.46368730068206787
aF0.5389270782470703
aF0.27795249223709106
aF0.4275304973125458
aF0.37946486473083496
aF0.5001847743988037
aF0.32857227325439453
aF0.3594919443130493
aF0.3838639259338379
aF0.41599729657173157
aF0.49490660429000854
aF0.49945735931396484
aF0.5478644371032715
aF0.32326748967170715
aF0.507224977016449
aF0.39809441566467285
aF0.38663917779922485
aF0.3635241687297821
aF0.606360673904419
aF0.4070141911506653
aF0.3908993899822235
aF0.4155970811843872
aF0.3513393998146057
aF0.3867219388484955
aF0.32457202672958374
aF0.3883529007434845
aF0.34045103192329407
aF0.3328534960746765
aF0.4170220196247101
aF0.3783145546913147
aF0.40118005871772766
aF0.45767027139663696
aF0.2975172996520996
aF0.5081948637962341
aF0.43047142028808594
aF0.3736785650253296
aF0.45853832364082336
aF0.2507740259170532
aF0.4424019455909729
aF0.34469473361968994
aF0.3150462508201599
aF0.23551373183727264
aF0.30654752254486084
aF0.4222158193588257
aF0.31637144088745117
aF0.23781895637512207
aF0.3946649432182312
aF0.3107321262359619
aF0.39476636052131653
aF0.25390252470970154
aF0.4276745319366455
aF0.38118553161621094
aF0.38362160325050354
aF0.34679174423217773
aF0.33255499601364136
aF0.41049709916114807
aF0.310678094625473
aF0.3037755489349365
aF0.3167567253112793
aF0.3182368874549866
aF0.407640278339386
aF0.3372231423854828
aF0.24719034135341644
aF0.33411267399787903
aF0.40457436442375183
aF0.2274380475282669
aF0.362500935792923
aF0.2590334713459015
aF0.3211229741573334
aF0.3251625895500183
aF0.24550095200538635
aF0.4244500696659088
asS'G_loss'
p7
(lp8
F7.193312168121338
aF10.305729866027832
aF4.816343307495117
aF2.6460986137390137
aF12.983981132507324
aF4.707756996154785
aF4.421526908874512
aF4.373989105224609
aF5.418079376220703
aF4.535848617553711
aF4.053224086761475
aF3.523635149002075
aF5.725943088531494
aF6.361464977264404
aF13.834415435791016
aF5.305066108703613
aF4.833147048950195
aF8.658658027648926
aF5.581056118011475
aF3.7175488471984863
aF6.269776821136475
aF3.9238288402557373
aF4.866113185882568
aF4.922842025756836
aF4.785189628601074
aF3.1259429454803467
aF4.10865592956543
aF3.5820887088775635
aF2.902282476425171
aF4.267491340637207
aF7.922560214996338
aF4.7284417152404785
aF5.628986358642578
aF4.715851306915283
aF3.5712335109710693
aF3.8781545162200928
aF4.161397933959961
aF3.080033540725708
aF4.576107978820801
aF3.2487893104553223
aF3.1913058757781982
aF2.5631027221679688
aF2.6557908058166504
aF2.972447395324707
aF2.9199306964874268
aF3.8701364994049072
aF5.391303062438965
aF4.566445350646973
aF2.5050137042999268
aF2.5780093669891357
aF1.8061201572418213
aF3.8114330768585205
aF1.9007296562194824
aF2.3606765270233154
aF2.1261086463928223
aF3.1202330589294434
aF1.616418719291687
aF2.272381067276001
aF2.0772838592529297
aF4.299190044403076
aF2.239840030670166
aF2.9949917793273926
aF1.8369425535202026
aF2.7683777809143066
aF2.7845654487609863
aF2.4990227222442627
aF2.254545211791992
aF2.010636329650879
aF3.0853090286254883
aF2.0553789138793945
aF2.6617820262908936
aF2.479199171066284
aF2.324949264526367
aF2.6814706325531006
aF2.3324718475341797
aF2.1358132362365723
aF2.517388105392456
aF2.372614860534668
aF2.3116912841796875
aF2.405756950378418
aF2.7188196182250977
aF2.4107208251953125
aF3.8420636653900146
aF2.7085483074188232
aF2.658250331878662
aF2.4628474712371826
aF1.6256849765777588
aF2.613555669784546
aF2.1325693130493164
aF3.77583646774292
aF2.7612009048461914
aF1.862117886543274
aF2.8895623683929443
aF2.026707887649536
aF2.484835624694824
aF2.6849477291107178
aF2.7661375999450684
aF2.519529342651367
aF2.451061725616455
aF2.78109073638916
aF4.062657833099365
aF2.270965576171875
aF1.8320610523223877
aF2.6708791255950928
aF2.747452735900879
aF2.0034830570220947
aF2.7016468048095703
aF2.3892762660980225
aF2.4795470237731934
aF2.640657424926758
aF2.732952356338501
aF2.300868272781372
aF2.3231217861175537
aF2.295970916748047
aF1.984550952911377
aF3.029205322265625
aF2.673128604888916
aF3.116422176361084
aF2.052161931991577
aF2.468775987625122
aF2.6757419109344482
aF2.2774174213409424
aF2.394524097442627
aF2.2179524898529053
aF2.0176620483398438
aF2.0760273933410645
aF2.1234824657440186
aF2.8895068168640137
aF3.4625415802001953
aF2.277632713317871
aF2.2973265647888184
aF2.8936989307403564
aF2.8351409435272217
aF3.249929189682007
aF2.1999917030334473
aF2.248265266418457
aF2.5855817794799805
aF2.267225503921509
aF2.2879178524017334
aF2.225383996963501
aF1.7936129570007324
aF1.7231242656707764
aF2.274940252304077
aF2.067964553833008
aF2.2904958724975586
aF2.055647373199463
aF2.7300708293914795
aF2.12784481048584
aF2.1214094161987305
aF2.334549903869629
aF2.4073801040649414
aF2.114874839782715
aF2.2905690670013428
aF2.116093873977661
aF2.361260414123535
aF2.452104091644287
aF2.4110195636749268
aF2.1156578063964844
aF2.5525689125061035
aF2.4925506114959717
aF2.1044540405273438
aF3.0044620037078857
aF2.7535276412963867
aF2.500056505203247
aF2.799778461456299
aF2.4681432247161865
aF2.432982921600342
aF2.007368564605713
aF2.4396514892578125
aF2.3264546394348145
aF2.753082036972046
aF2.1863608360290527
aF2.2293035984039307
aF2.6485042572021484
aF2.938058853149414
aF3.0214853286743164
aF2.6624813079833984
aF2.2548024654388428
aF3.286580801010132
aF2.5782859325408936
aF2.4743518829345703
aF2.3872432708740234
aF2.708986282348633
aF2.7999069690704346
aF2.5687289237976074
aF3.0527920722961426
aF2.5362682342529297
aF2.4996416568756104
aF2.5596375465393066
aF2.2091333866119385
aF2.5791690349578857
aF2.6423962116241455
aF2.570070505142212
aF2.162851333618164
aF2.8001389503479004
aF2.202925682067871
aF2.7860031127929688
aF2.2855143547058105
aF2.7133989334106445
aF2.596742630004883
aF2.8823349475860596
asb.