(i__main__
LossModule
p0
(dp1
S'D_loss'
p2
(lp3
F0.38665133714675903
aF1.0804870128631592
aF0.817518949508667
aF0.8520916700363159
aF0.4525938034057617
aF0.4116409420967102
aF0.5188360214233398
asS'G_loss'
p4
(lp5
F3.053981304168701
aF2.546935796737671
aF2.6055450439453125
aF2.4320337772369385
aF2.4987616539001465
aF2.823817491531372
aF3.4408817291259766
asb.