(i__main__
LossModule
p0
(dp1
S'D_loss'
p2
(lp3
F1.6054117679595947
aF0.28011763095855713
aF0.6717302799224854
aF1.6070185899734497
aF0.31839239597320557
aF0.961861252784729
aF0.7894065380096436
aF0.45891034603118896
aF0.3725219964981079
aF0.24427610635757446
aF0.19640995562076569
aF0.23018157482147217
aF0.418216347694397
aF0.7057644724845886
aF0.5237943530082703
aF0.5878645777702332
aF0.6062766313552856
aF0.4858657419681549
aF0.4150150418281555
aF0.7071399092674255
aF0.9503817558288574
aF0.42305779457092285
aF0.5314317941665649
aF0.7853521108627319
aF0.8510919213294983
aF0.9563850164413452
aF0.5829321146011353
aF0.6929125785827637
aF0.7801325917243958
aF0.6853091716766357
aF0.7750859260559082
aF0.7350611686706543
aF0.6031177639961243
aF0.6913548707962036
aF0.8316874504089355
aF0.6681984663009644
aF0.8832829594612122
aF0.7518213987350464
aF0.9464606046676636
aF0.6313256621360779
aF0.8385058045387268
aF0.7277898788452148
aF0.8745462894439697
aF0.8898751735687256
aF0.8360614776611328
aF0.801677942276001
aF0.7654983997344971
aF0.6841661930084229
aF0.850178599357605
aF0.639472484588623
aF0.662925124168396
aF0.9309365153312683
aF0.652807354927063
aF0.8057735562324524
aF0.6838976144790649
aF0.7493644952774048
aF1.0196079015731812
aF0.8263486623764038
aF0.8383395075798035
aF0.8836523294448853
aF0.9383100271224976
aF0.9369618892669678
aF0.8034635186195374
aF0.9259930849075317
aF0.7104586362838745
aF0.9533119201660156
aF0.7805658578872681
aF0.8447577357292175
aF0.970305860042572
aF0.6685320138931274
aF0.8281506299972534
aF0.8614392280578613
aF0.7698230147361755
aF0.9616650938987732
aF0.7118752002716064
aF0.8242557048797607
aF0.6844958066940308
aF0.9058618545532227
aF0.7589007616043091
aF0.8464304208755493
aF0.8843724131584167
aF0.8994004726409912
aF0.9214818477630615
aF0.908294141292572
aF0.9147448539733887
aF0.9002072811126709
aF0.8780217170715332
aF0.9211727380752563
aF1.0564851760864258
aF0.8466190099716187
aF0.7751548290252686
aF0.9651418924331665
aF1.0364258289337158
aF0.8631891012191772
aF0.93328857421875
aF0.8414573669433594
aF0.8713708519935608
aF0.9453573226928711
aF0.8355603218078613
aF0.794152021408081
aF0.7702643871307373
aF0.7454612255096436
aF0.8777903318405151
aF0.8493251800537109
aF0.7880849838256836
aF0.8411851525306702
aF0.8751537799835205
aF1.0430632829666138
aF0.9453006386756897
aF0.9030880928039551
aF0.9709563255310059
aF0.7779185175895691
aF0.8246403932571411
aF0.8360646367073059
aF0.9112128019332886
aF0.9292738437652588
aF0.8802353143692017
aF0.8219715356826782
aF0.8184781670570374
aF0.8007999062538147
aF0.7858782410621643
aF0.8661531209945679
aF0.8883407711982727
aF0.7690789699554443
aF0.9433538913726807
aF0.8146905899047852
aF0.9890486001968384
aF0.7743241786956787
aF0.8560259342193604
aF0.974432647228241
aF0.799887478351593
aF0.8523151874542236
aF0.8134608864784241
aF0.6982996463775635
aF0.9933054447174072
aF1.0445551872253418
aF0.7677416801452637
aF0.9233086109161377
aF0.9900346398353577
aF0.7621464133262634
aF0.8361419439315796
aF0.9177864789962769
aF0.7953596115112305
aF0.9463436603546143
aF0.8600393533706665
aF0.8581023812294006
aF0.6819180250167847
aF0.8935287594795227
aF0.9805561304092407
aF0.8064699769020081
aF0.8016469478607178
aF0.7596020102500916
aF0.8456588983535767
aF0.8335104584693909
aF0.8258974552154541
aF0.7351616621017456
aF0.944625735282898
aF0.8300056457519531
aF0.8155622482299805
aF0.7435703277587891
aF0.8763368129730225
aF0.7595743536949158
aF0.8763796091079712
aF0.9011721611022949
aF0.948879599571228
aF0.8332636952400208
aF0.9537048935890198
aF0.882552981376648
aF0.8920885920524597
aF0.8039212822914124
aF0.8746559619903564
aF0.7975115776062012
aF0.8062734603881836
aF0.776972234249115
aF0.8856564164161682
aF0.918721616268158
aF0.8478955626487732
aF0.7467113733291626
aF1.0338443517684937
aF0.8409406542778015
aF0.8603017926216125
aF0.8682795763015747
aF1.0352295637130737
aF0.9467741847038269
aF0.8311779499053955
aF0.9499834775924683
aF0.8060964345932007
aF0.8479301929473877
aF0.8654128313064575
aF0.8638966679573059
aF0.8987981081008911
aF0.8200908303260803
aF0.8767485022544861
aF0.8635886311531067
aF0.8026993274688721
aF0.8968253135681152
aF0.9243760108947754
aF0.7188354730606079
aF0.8601018190383911
aF0.8406124711036682
asS'G_loss'
p4
(lp5
F1.4345115423202515
aF3.3504278659820557
aF2.641634941101074
aF1.9705255031585693
aF3.3505966663360596
aF2.0816919803619385
aF1.9909189939498901
aF2.35408878326416
aF2.7485644817352295
aF3.226367235183716
aF4.060076713562012
aF4.510974407196045
aF2.888378381729126
aF3.9097375869750977
aF2.9131956100463867
aF2.491097927093506
aF2.5327765941619873
aF2.6926887035369873
aF3.0462779998779297
aF3.074411392211914
aF1.831900954246521
aF2.3818142414093018
aF2.8569653034210205
aF2.1969754695892334
aF3.2041497230529785
aF1.513293743133545
aF3.048825979232788
aF3.0722222328186035
aF2.026932716369629
aF2.5332388877868652
aF2.370532274246216
aF1.9020743370056152
aF2.3733279705047607
aF2.075643539428711
aF2.154453992843628
aF2.323338270187378
aF2.0596773624420166
aF1.6758008003234863
aF1.9520214796066284
aF1.8331084251403809
aF2.0107507705688477
aF2.1816916465759277
aF2.2230989933013916
aF2.327650547027588
aF1.4314565658569336
aF1.6231374740600586
aF1.6073516607284546
aF1.7956722974777222
aF1.5630608797073364
aF1.9864685535430908
aF1.9729052782058716
aF1.7443164587020874
aF1.9115115404129028
aF2.004037380218506
aF2.322031259536743
aF1.295241117477417
aF1.4930198192596436
aF2.203660011291504
aF1.6055493354797363
aF1.8253875970840454
aF1.5085700750350952
aF1.892154335975647
aF1.8511254787445068
aF1.484887957572937
aF1.7468849420547485
aF1.2398035526275635
aF1.8737857341766357
aF1.6983317136764526
aF2.0047032833099365
aF2.0700278282165527
aF1.3885605335235596
aF1.5092506408691406
aF1.594304084777832
aF1.5789270401000977
aF1.5794403553009033
aF1.7572903633117676
aF1.7060813903808594
aF1.937136173248291
aF1.5431640148162842
aF1.7580139636993408
aF1.9025583267211914
aF1.3728399276733398
aF1.7870129346847534
aF1.7761774063110352
aF2.175363063812256
aF1.4735866785049438
aF1.7601476907730103
aF1.7380168437957764
aF1.5438146591186523
aF1.3676130771636963
aF1.5999089479446411
aF1.3431451320648193
aF1.3397754430770874
aF1.5945019721984863
aF1.8538143634796143
aF1.5833518505096436
aF1.7263506650924683
aF1.7919079065322876
aF1.5491421222686768
aF1.7586543560028076
aF1.4499564170837402
aF1.8240256309509277
aF1.9625416994094849
aF1.8634469509124756
aF1.7320945262908936
aF1.4313342571258545
aF2.4089066982269287
aF1.4627875089645386
aF1.9424573183059692
aF1.781549334526062
aF1.3118841648101807
aF1.613108515739441
aF1.7678495645523071
aF1.9710662364959717
aF1.7149826288223267
aF1.5448635816574097
aF2.2886886596679688
aF1.462032675743103
aF1.9056346416473389
aF2.056079387664795
aF1.2208596467971802
aF1.6730445623397827
aF1.073259711265564
aF1.6454287767410278
aF1.705776333808899
aF1.9994227886199951
aF1.5767837762832642
aF1.9309301376342773
aF1.6200432777404785
aF1.5223463773727417
aF1.4379241466522217
aF1.6427050828933716
aF1.8519105911254883
aF1.6075743436813354
aF1.4595867395401
aF2.0191457271575928
aF2.075839042663574
aF1.8729519844055176
aF1.880446434020996
aF1.8984363079071045
aF1.6183606386184692
aF2.024876594543457
aF1.7125024795532227
aF1.5578151941299438
aF1.5810630321502686
aF1.4143458604812622
aF1.6685113906860352
aF1.5743948221206665
aF1.5733177661895752
aF1.949628472328186
aF1.8248794078826904
aF2.040107488632202
aF1.4959139823913574
aF1.5543688535690308
aF1.9129910469055176
aF1.5729283094406128
aF1.9378628730773926
aF1.5453871488571167
aF2.032524347305298
aF1.8832757472991943
aF1.4506338834762573
aF1.5775551795959473
aF1.666237235069275
aF1.289964199066162
aF1.6784372329711914
aF1.8850041627883911
aF2.3200371265411377
aF2.06831431388855
aF1.62772798538208
aF2.156771659851074
aF1.6653289794921875
aF1.3407800197601318
aF1.7144746780395508
aF1.6906607151031494
aF1.4301670789718628
aF1.9680442810058594
aF1.5475589036941528
aF1.8449428081512451
aF1.898485541343689
aF1.6306381225585938
aF1.8775142431259155
aF1.5348222255706787
aF2.0288245677948
aF1.9526987075805664
aF1.6943295001983643
aF1.816807508468628
aF1.444512128829956
aF1.747999906539917
aF1.652104139328003
aF2.016277551651001
aF1.6290475130081177
aF1.823625922203064
aF1.8106328248977661
aF1.8093644380569458
aF2.011669397354126
aF1.3482073545455933
aF1.7146072387695312
aF1.6620982885360718
aF1.4147369861602783
aF1.8017141819000244
asb.