(i__main__
LossModule
p0
(dp1
S'Many_G_loss'
p2
(lp3
(lp4
ag4
ag4
ag4
asS'D_loss'
p5
(lp6
F0.010288486257195473
aF0.09553352743387222
aF0.08975671976804733
aF0.006346763577312231
aF0.010762561112642288
aF0.04134656861424446
aF0.052571579813957214
aF0.02286604791879654
aF0.06145826727151871
aF0.0022677776869386435
aF0.004686570726335049
aF0.009752290323376656
aF0.024311721324920654
aF0.04661114513874054
aF0.014577419497072697
aF0.07877461612224579
aF0.04506569728255272
aF0.13691231608390808
aF0.031295664608478546
aF0.10281935334205627
aF0.06698569655418396
aF0.08853720873594284
aF0.35684725642204285
aF0.21869045495986938
aF0.15321698784828186
aF0.16882117092609406
aF0.08619241416454315
aF0.16700711846351624
aF0.1896154284477234
aF0.3210494816303253
aF0.20275187492370605
aF0.2354108691215515
aF0.19005385041236877
aF0.05876433104276657
aF0.18876060843467712
aF0.26292598247528076
aF0.24495145678520203
aF0.1318770945072174
aF0.18354636430740356
aF0.1298329383134842
aF0.08319498598575592
aF0.07217910885810852
aF0.0017844322137534618
aF0.07592284679412842
aF0.04131258279085159
aF0.14140065014362335
aF0.23808187246322632
aF0.3666515648365021
aF0.30232974886894226
aF0.3645910918712616
aF0.28611308336257935
aF0.23477177321910858
aF0.2406022995710373
aF0.2758347988128662
aF0.33467087149620056
aF0.29446807503700256
aF0.2543897330760956
aF0.2646193206310272
aF0.22987638413906097
aF0.44454675912857056
aF0.31734004616737366
aF0.23216886818408966
aF0.18832717835903168
aF0.11460971087217331
aF0.030477385967969894
aF0.017977867275476456
aF0.01333682518452406
aF0.010424518957734108
aF0.06295860558748245
aF0.10253572463989258
aF0.2656262516975403
aF0.16673295199871063
aF0.25997450947761536
aF0.2648303508758545
aF0.3399464190006256
aF0.33066749572753906
aF0.3148648738861084
aF0.3135729134082794
aF0.5664293766021729
aF0.19417566061019897
aF0.388432115316391
aF0.28607332706451416
aF0.39037877321243286
aF0.3937060236930847
aF0.4404895603656769
aF0.5042250156402588
aF0.2990289032459259
aF0.26864150166511536
aF0.3219790458679199
aF0.21952930092811584
aF0.4494398832321167
aF0.503642737865448
aF0.27873364090919495
aF0.3745419383049011
aF0.4369678497314453
aF0.4152034521102905
aF0.3438680171966553
aF0.3268386721611023
aF0.377547025680542
aF0.3334784507751465
aF0.39305320382118225
aF0.3218386471271515
aF0.3226068913936615
aF0.2925126552581787
aF0.3859636187553406
aF0.4144584834575653
aF0.32511311769485474
aF0.4491913914680481
aF0.26812654733657837
aF0.3530975580215454
aF0.3398209810256958
aF0.36908602714538574
aF0.2947816550731659
aF0.3989531397819519
aF0.31904226541519165
aF0.31216371059417725
aF0.36224937438964844
aF0.41129621863365173
aF0.26824951171875
aF0.5310529470443726
aF0.260122150182724
aF0.33316904306411743
aF0.4297163784503937
aF0.3738343417644501
aF0.36026936769485474
aF0.32428115606307983
aF0.37799227237701416
aF0.32785719633102417
aF0.27173319458961487
aF0.31846240162849426
aF0.33262938261032104
aF0.4263569414615631
aF0.3370234966278076
aF0.39126428961753845
aF0.4622459411621094
aF0.38755857944488525
aF0.417223185300827
aF0.4847692847251892
aF0.4181995987892151
aF0.38132524490356445
aF0.3543829917907715
aF0.28505611419677734
aF0.3964652717113495
aF0.4925256371498108
aF0.3533249795436859
aF0.3825841546058655
aF0.2738214135169983
aF0.4040658175945282
aF0.37282776832580566
aF0.3218667209148407
aF0.38172730803489685
aF0.4376312792301178
aF0.4631876051425934
aF0.42524921894073486
aF0.4188575744628906
aF0.2857379913330078
aF0.3670485019683838
aF0.39422720670700073
aF0.33776307106018066
aF0.29633402824401855
aF0.2596660256385803
aF0.482065886259079
aF0.30517327785491943
aF0.39933544397354126
aF0.3109303116798401
aF0.38672399520874023
aF0.3822225034236908
aF0.444159597158432
aF0.33025938272476196
aF0.4122319221496582
aF0.36708545684814453
aF0.40280166268348694
aF0.43160057067871094
aF0.2716639041900635
aF0.34885868430137634
aF0.594223141670227
aF0.481243371963501
aF0.26359739899635315
aF0.2955642342567444
aF0.40139323472976685
aF0.4058661460876465
aF0.45947015285491943
aF0.31398510932922363
aF0.23086316883563995
aF0.31163787841796875
aF0.42101675271987915
aF0.5132411122322083
aF0.404819130897522
aF0.43352213501930237
aF0.4125881791114807
aF0.40949392318725586
aF0.32518383860588074
aF0.30097559094429016
aF0.4292251467704773
aF0.35569262504577637
aF0.31138402223587036
aF0.3487913906574249
aF0.3430309593677521
aF0.4341735243797302
aF0.31693026423454285
asS'G_loss'
p7
(lp8
F5.9049577713012695
aF8.861605644226074
aF2.968153476715088
aF6.531984329223633
aF7.458606719970703
aF4.487551689147949
aF10.416561126708984
aF10.788747787475586
aF6.103564262390137
aF7.798272132873535
aF13.862297058105469
aF9.838316917419434
aF9.156538009643555
aF7.9997711181640625
aF10.537030220031738
aF4.49341344833374
aF6.083095073699951
aF7.771499156951904
aF7.825376510620117
aF7.479345321655273
aF6.2854743003845215
aF7.326189994812012
aF4.793639659881592
aF5.46320915222168
aF5.206050395965576
aF4.197539806365967
aF4.765685558319092
aF3.9002251625061035
aF3.49910044670105
aF2.7293801307678223
aF1.6882662773132324
aF3.549072027206421
aF4.4789838790893555
aF7.38406229019165
aF4.6398091316223145
aF4.886193752288818
aF3.642641544342041
aF5.126456260681152
aF5.862990856170654
aF7.704214572906494
aF5.911579608917236
aF8.643372535705566
aF13.387617111206055
aF12.873801231384277
aF8.163453102111816
aF5.868173599243164
aF4.583989143371582
aF3.6326308250427246
aF2.5734994411468506
aF3.7782604694366455
aF2.7933509349823
aF3.3031647205352783
aF2.9357471466064453
aF3.524027109146118
aF2.6941516399383545
aF2.4058525562286377
aF4.340127468109131
aF3.1953165531158447
aF4.510935306549072
aF2.7002429962158203
aF2.590545892715454
aF2.7363555431365967
aF3.1309621334075928
aF5.6390886306762695
aF11.781333923339844
aF8.644793510437012
aF10.869375228881836
aF9.364481925964355
aF8.136497497558594
aF5.952083110809326
aF4.064155578613281
aF3.175968647003174
aF3.13728404045105
aF4.042334079742432
aF2.7619106769561768
aF3.446230173110962
aF2.938800096511841
aF1.7524855136871338
aF2.425356864929199
aF3.262690782546997
aF3.1773977279663086
aF2.162262439727783
aF2.8195693492889404
aF3.093536376953125
aF1.7430038452148438
aF1.7147190570831299
aF2.8450767993927
aF2.8376150131225586
aF2.6997921466827393
aF2.7944953441619873
aF2.40043044090271
aF3.433375835418701
aF2.595606803894043
aF3.052868604660034
aF2.6787891387939453
aF2.7745070457458496
aF2.325977087020874
aF2.120462656021118
aF2.2162630558013916
aF1.8602253198623657
aF2.1330485343933105
aF2.05716872215271
aF2.3681814670562744
aF3.043704032897949
aF2.3598761558532715
aF2.4991445541381836
aF1.9954352378845215
aF2.3556346893310547
aF2.326385736465454
aF3.3076601028442383
aF2.7621383666992188
aF1.9717015027999878
aF2.5222716331481934
aF2.126006603240967
aF1.623511552810669
aF2.9867053031921387
aF2.6218385696411133
aF2.2670085430145264
aF2.232328414916992
aF2.592141628265381
aF2.306535243988037
aF2.5282835960388184
aF2.0400421619415283
aF2.475590944290161
aF2.12601637840271
aF3.1054184436798096
aF2.0298430919647217
aF2.291452169418335
aF2.120938301086426
aF2.2026586532592773
aF2.140015125274658
aF3.4362401962280273
aF2.964451789855957
aF1.8982365131378174
aF2.3547427654266357
aF2.12174916267395
aF1.9504859447479248
aF2.0595803260803223
aF2.2106316089630127
aF2.7301414012908936
aF2.2630317211151123
aF2.31925106048584
aF2.7889652252197266
aF2.3047444820404053
aF2.3173038959503174
aF1.810732126235962
aF2.544875144958496
aF2.133685827255249
aF2.219465970993042
aF2.492954969406128
aF2.554405450820923
aF2.584066152572632
aF2.1814661026000977
aF1.8348071575164795
aF2.7508695125579834
aF2.399064064025879
aF2.1089768409729004
aF1.8845503330230713
aF2.1999666690826416
aF2.529616594314575
aF2.7956557273864746
aF2.6563854217529297
aF2.3689939975738525
aF2.380770444869995
aF2.534792900085449
aF2.0807809829711914
aF2.0515260696411133
aF2.976999521255493
aF2.0362415313720703
aF2.2294445037841797
aF3.0465283393859863
aF3.6384265422821045
aF2.0885112285614014
aF2.7178609371185303
aF2.4440183639526367
aF2.3182249069213867
aF2.584630012512207
aF2.5318403244018555
aF2.257683515548706
aF2.3414297103881836
aF2.6155970096588135
aF2.6018428802490234
aF2.3886008262634277
aF2.918041467666626
aF2.535613775253296
aF2.265476942062378
aF2.1737418174743652
aF2.1885125637054443
aF2.5201711654663086
aF2.604226589202881
aF1.8931697607040405
aF2.1233136653900146
aF2.3044235706329346
aF2.245680093765259
aF2.9295098781585693
aF2.495262861251831
aF2.400505304336548
aF2.2913243770599365
aF2.678222894668579
aF2.516697645187378
asb.